ARM GAS  /tmp/ccTL5wgm.s 			page 1


   1              		.cpu cortex-m4
   2              		.arch armv7e-m
   3              		.fpu fpv4-sp-d16
   4              		.eabi_attribute 27, 1
   5              		.eabi_attribute 28, 1
   6              		.eabi_attribute 20, 1
   7              		.eabi_attribute 21, 1
   8              		.eabi_attribute 23, 3
   9              		.eabi_attribute 24, 1
  10              		.eabi_attribute 25, 1
  11              		.eabi_attribute 26, 1
  12              		.eabi_attribute 30, 1
  13              		.eabi_attribute 34, 1
  14              		.eabi_attribute 18, 4
  15              		.file	"ecatapp.c"
  16              		.text
  17              	.Ltext0:
  18              		.cfi_sections	.debug_frame
  19              		.section	.text.app_cia402_init,"ax",%progbits
  20              		.align	1
  21              		.global	app_cia402_init
  22              		.syntax unified
  23              		.thumb
  24              		.thumb_func
  26              	app_cia402_init:
  27              	.LFB133:
  28              		.file 1 "Core/Src/ecatapp.c"
   1:Core/Src/ecatapp.c **** #include "usart.h"
   2:Core/Src/ecatapp.c **** 
   3:Core/Src/ecatapp.c **** #include "esc.h"
   4:Core/Src/ecatapp.c **** #include "ecat_slv.h"
   5:Core/Src/ecatapp.c **** #include "utypes.h"
   6:Core/Src/ecatapp.c **** 
   7:Core/Src/ecatapp.c **** #include "esc_irq.h"
   8:Core/Src/ecatapp.c **** #include "pdo_override.h"
   9:Core/Src/ecatapp.c **** #include "cia402device.h"
  10:Core/Src/ecatapp.c **** #include "ecatapp.h"
  11:Core/Src/ecatapp.c **** 
  12:Core/Src/ecatapp.c **** 
  13:Core/Src/ecatapp.c **** /* CANopen Object Dictionary */
  14:Core/Src/ecatapp.c **** _Objects    Obj;
  15:Core/Src/ecatapp.c **** 
  16:Core/Src/ecatapp.c **** 
  17:Core/Src/ecatapp.c **** /* Application hook declaration */
  18:Core/Src/ecatapp.c **** void ecatapp(void);
  19:Core/Src/ecatapp.c **** uint16_t check_dc_handler(void);
  20:Core/Src/ecatapp.c **** 
  21:Core/Src/ecatapp.c **** /* CiA402 hooks declarations */
  22:Core/Src/ecatapp.c **** void app_cia402_init(void);
  23:Core/Src/ecatapp.c **** void app_cia402_mc(void);
  24:Core/Src/ecatapp.c **** 
  25:Core/Src/ecatapp.c **** 
  26:Core/Src/ecatapp.c **** /* SOES configuration */
  27:Core/Src/ecatapp.c **** static esc_cfg_t config = { 
  28:Core/Src/ecatapp.c ****     .user_arg                  = "ax58100",
  29:Core/Src/ecatapp.c ****     .use_interrupt             = 1,
  30:Core/Src/ecatapp.c ****     .watchdog_cnt              = INT32_MAX,
ARM GAS  /tmp/ccTL5wgm.s 			page 2


  31:Core/Src/ecatapp.c ****     .set_defaults_hook         = NULL,
  32:Core/Src/ecatapp.c ****     .pre_state_change_hook     = NULL,
  33:Core/Src/ecatapp.c ****     .post_state_change_hook    = NULL,
  34:Core/Src/ecatapp.c ****     .application_hook          = ecatapp,
  35:Core/Src/ecatapp.c ****     .safeoutput_override       = NULL,
  36:Core/Src/ecatapp.c ****     .pre_object_download_hook  = NULL,
  37:Core/Src/ecatapp.c ****     .post_object_download_hook = NULL,
  38:Core/Src/ecatapp.c ****     .rxpdo_override            = rxpdo_override,
  39:Core/Src/ecatapp.c ****     .txpdo_override            = txpdo_override,
  40:Core/Src/ecatapp.c ****     .esc_hw_interrupt_enable   = ESC_interrupt_enable,
  41:Core/Src/ecatapp.c ****     .esc_hw_interrupt_disable  = ESC_interrupt_disable,
  42:Core/Src/ecatapp.c ****     .esc_hw_eep_handler        = NULL,
  43:Core/Src/ecatapp.c ****     .esc_check_dc_handler      = check_dc_handler,
  44:Core/Src/ecatapp.c **** };
  45:Core/Src/ecatapp.c **** 
  46:Core/Src/ecatapp.c **** /* CiA402 motion control configuration */
  47:Core/Src/ecatapp.c **** cia402_axis_t cia402axis = {
  48:Core/Src/ecatapp.c ****     .init_od_hook              = app_cia402_init,
  49:Core/Src/ecatapp.c ****     .motion_control_hook       = app_cia402_mc,
  50:Core/Src/ecatapp.c **** };
  51:Core/Src/ecatapp.c **** 
  52:Core/Src/ecatapp.c **** // **************************************************************
  53:Core/Src/ecatapp.c **** 
  54:Core/Src/ecatapp.c **** static uint8_t sync0_irq_flag = 0;
  55:Core/Src/ecatapp.c **** 
  56:Core/Src/ecatapp.c **** void EXTI1_IRQHandler(void)
  57:Core/Src/ecatapp.c **** {
  58:Core/Src/ecatapp.c ****     if(EXTI_GetITStatus(EXTI_Line1) != RESET)
  59:Core/Src/ecatapp.c ****     {
  60:Core/Src/ecatapp.c ****         EXTI_ClearITPendingBit(EXTI_Line1);
  61:Core/Src/ecatapp.c ****         sync0_irq_flag = 1;
  62:Core/Src/ecatapp.c ****     }
  63:Core/Src/ecatapp.c **** }
  64:Core/Src/ecatapp.c **** 
  65:Core/Src/ecatapp.c **** static uint8_t pdi_irq_flag = 0;
  66:Core/Src/ecatapp.c **** 
  67:Core/Src/ecatapp.c **** void EXTI3_IRQHandler(void)
  68:Core/Src/ecatapp.c **** {
  69:Core/Src/ecatapp.c ****     if(EXTI_GetITStatus(EXTI_Line3) != RESET)
  70:Core/Src/ecatapp.c ****     {
  71:Core/Src/ecatapp.c ****         EXTI_ClearITPendingBit(EXTI_Line3);
  72:Core/Src/ecatapp.c ****         pdi_irq_flag = 1;
  73:Core/Src/ecatapp.c ****     }
  74:Core/Src/ecatapp.c **** }
  75:Core/Src/ecatapp.c **** // **************************************************************
  76:Core/Src/ecatapp.c **** 
  77:Core/Src/ecatapp.c **** void ecatapp_init(void) {
  78:Core/Src/ecatapp.c ****     ecat_slv_init(&config);
  79:Core/Src/ecatapp.c ****     cia402_init(&cia402axis);
  80:Core/Src/ecatapp.c **** 	init_override();
  81:Core/Src/ecatapp.c **** }
  82:Core/Src/ecatapp.c **** 
  83:Core/Src/ecatapp.c **** uint16_t check_dc_handler (void)
  84:Core/Src/ecatapp.c **** {
  85:Core/Src/ecatapp.c ****     // minimum watchdog value is 1 ms, in nanoseconds
  86:Core/Src/ecatapp.c ****     #define MIN_WATCHDOG_VALUE_NS      1000000
  87:Core/Src/ecatapp.c **** 
ARM GAS  /tmp/ccTL5wgm.s 			page 3


  88:Core/Src/ecatapp.c ****     /* Indicate we run DC */
  89:Core/Src/ecatapp.c ****     ESCvar.dcsync = 1;
  90:Core/Src/ecatapp.c ****     /* Fetch the sync counter limit (SDO10F1) */
  91:Core/Src/ecatapp.c ****     ESCvar.synccounterlimit = Obj.Error_Settings.SyncErrorCounterLimit;
  92:Core/Src/ecatapp.c **** 
  93:Core/Src/ecatapp.c ****     uint32_t sync0cycleTime = ESC_enable_DC();
  94:Core/Src/ecatapp.c ****     Obj.Sync_Manager_2_Parameters.CycleTime = sync0cycleTime;
  95:Core/Src/ecatapp.c ****     // Obj.Sync_Manager_3_Parameters.CycleTime = sync0cycleTime;
  96:Core/Src/ecatapp.c ****     // calculate watchdog value as 2 x SYNC0 cycle time
  97:Core/Src/ecatapp.c ****     int watchdog_value = 2 * sync0cycleTime;
  98:Core/Src/ecatapp.c ****     if (watchdog_value < MIN_WATCHDOG_VALUE_NS) {
  99:Core/Src/ecatapp.c ****         watchdog_value = MIN_WATCHDOG_VALUE_NS;
 100:Core/Src/ecatapp.c ****     }
 101:Core/Src/ecatapp.c ****     APP_setwatchdog(watchdog_value);
 102:Core/Src/ecatapp.c **** 
 103:Core/Src/ecatapp.c ****     return 0;
 104:Core/Src/ecatapp.c **** }
 105:Core/Src/ecatapp.c **** 
 106:Core/Src/ecatapp.c **** void ecatapp()
 107:Core/Src/ecatapp.c **** {
 108:Core/Src/ecatapp.c ****     cia402_state_machine(&cia402axis, Obj.Control_Word);
 109:Core/Src/ecatapp.c **** }
 110:Core/Src/ecatapp.c **** 
 111:Core/Src/ecatapp.c **** 
 112:Core/Src/ecatapp.c **** void cb_get_inputs()
 113:Core/Src/ecatapp.c **** {
 114:Core/Src/ecatapp.c ****     /* SOES reqires this function but nothing to do here in CiA402 app */
 115:Core/Src/ecatapp.c **** }
 116:Core/Src/ecatapp.c **** 
 117:Core/Src/ecatapp.c **** 
 118:Core/Src/ecatapp.c **** void cb_set_outputs()
 119:Core/Src/ecatapp.c **** {
 120:Core/Src/ecatapp.c ****     /* SOES reqires this function but nothing to do here in CiA402 app */
 121:Core/Src/ecatapp.c **** }
 122:Core/Src/ecatapp.c **** 
 123:Core/Src/ecatapp.c **** 
 124:Core/Src/ecatapp.c **** void app_cia402_init(void)
 125:Core/Src/ecatapp.c **** {
  29              		.loc 1 125 1 view -0
  30              		.cfi_startproc
  31              		@ args = 0, pretend = 0, frame = 0
  32              		@ frame_needed = 0, uses_anonymous_args = 0
  33              		@ link register save eliminated.
 126:Core/Src/ecatapp.c ****     /* Match CiA 402 objects to used CoE Object Dictionary implementation */
 127:Core/Src/ecatapp.c ****     cia402axis.statusword = &Obj.Status_Word;
  34              		.loc 1 127 5 view .LVU1
  35              		.loc 1 127 27 is_stmt 0 view .LVU2
  36 0000 024B     		ldr	r3, .L2
  37 0002 034A     		ldr	r2, .L2+4
  38 0004 5A60     		str	r2, [r3, #4]
 128:Core/Src/ecatapp.c ****     cia402axis.ALstatus = &ESCvar.ALstatus;
  39              		.loc 1 128 5 is_stmt 1 view .LVU3
  40              		.loc 1 128 25 is_stmt 0 view .LVU4
  41 0006 034A     		ldr	r2, .L2+8
  42 0008 9A60     		str	r2, [r3, #8]
 129:Core/Src/ecatapp.c **** }
  43              		.loc 1 129 1 view .LVU5
ARM GAS  /tmp/ccTL5wgm.s 			page 4


  44 000a 7047     		bx	lr
  45              	.L3:
  46              		.align	2
  47              	.L2:
  48 000c 00000000 		.word	.LANCHOR0
  49 0010 04000000 		.word	.LANCHOR1+4
  50 0014 80000000 		.word	ESCvar+128
  51              		.cfi_endproc
  52              	.LFE133:
  54              		.section	.text.app_cia402_mc,"ax",%progbits
  55              		.align	1
  56              		.global	app_cia402_mc
  57              		.syntax unified
  58              		.thumb
  59              		.thumb_func
  61              	app_cia402_mc:
  62              	.LFB134:
 130:Core/Src/ecatapp.c **** 
 131:Core/Src/ecatapp.c **** 
 132:Core/Src/ecatapp.c **** void app_cia402_mc()
 133:Core/Src/ecatapp.c **** {
  63              		.loc 1 133 1 is_stmt 1 view -0
  64              		.cfi_startproc
  65              		@ args = 0, pretend = 0, frame = 0
  66              		@ frame_needed = 0, uses_anonymous_args = 0
  67              		@ link register save eliminated.
 134:Core/Src/ecatapp.c ****     // TODO motion control here
 135:Core/Src/ecatapp.c ****     Obj.Position_actual = Obj.Target_position; // dummy loopback
  68              		.loc 1 135 5 view .LVU7
  69              		.loc 1 135 30 is_stmt 0 view .LVU8
  70 0000 044B     		ldr	r3, .L5
  71 0002 1A69     		ldr	r2, [r3, #16]
  72              		.loc 1 135 25 view .LVU9
  73 0004 9A60     		str	r2, [r3, #8]
 136:Core/Src/ecatapp.c ****     // csp is the only supported mode for now
 137:Core/Src/ecatapp.c ****     *(cia402axis.statusword) |= CIA402_STATUSWORD_CSP_DRIVE_FOLLOWS_COMMAND;
  74              		.loc 1 137 5 is_stmt 1 view .LVU10
  75              		.loc 1 137 17 is_stmt 0 view .LVU11
  76 0006 044B     		ldr	r3, .L5+4
  77 0008 5A68     		ldr	r2, [r3, #4]
  78              		.loc 1 137 30 view .LVU12
  79 000a 1388     		ldrh	r3, [r2]
  80 000c 43F48053 		orr	r3, r3, #4096
  81 0010 1380     		strh	r3, [r2]	@ movhi
 138:Core/Src/ecatapp.c **** }
  82              		.loc 1 138 1 view .LVU13
  83 0012 7047     		bx	lr
  84              	.L6:
  85              		.align	2
  86              	.L5:
  87 0014 00000000 		.word	.LANCHOR1
  88 0018 00000000 		.word	.LANCHOR0
  89              		.cfi_endproc
  90              	.LFE134:
  92              		.section	.text.check_dc_handler,"ax",%progbits
  93              		.align	1
  94              		.global	check_dc_handler
ARM GAS  /tmp/ccTL5wgm.s 			page 5


  95              		.syntax unified
  96              		.thumb
  97              		.thumb_func
  99              	check_dc_handler:
 100              	.LFB129:
  84:Core/Src/ecatapp.c ****     // minimum watchdog value is 1 ms, in nanoseconds
 101              		.loc 1 84 1 is_stmt 1 view -0
 102              		.cfi_startproc
 103              		@ args = 0, pretend = 0, frame = 0
 104              		@ frame_needed = 0, uses_anonymous_args = 0
 105 0000 10B5     		push	{r4, lr}
 106              		.cfi_def_cfa_offset 8
 107              		.cfi_offset 4, -8
 108              		.cfi_offset 14, -4
  89:Core/Src/ecatapp.c ****     /* Fetch the sync counter limit (SDO10F1) */
 109              		.loc 1 89 5 view .LVU15
  89:Core/Src/ecatapp.c ****     /* Fetch the sync counter limit (SDO10F1) */
 110              		.loc 1 89 19 is_stmt 0 view .LVU16
 111 0002 0B4B     		ldr	r3, .L11
 112 0004 0122     		movs	r2, #1
 113 0006 83F87C20 		strb	r2, [r3, #124]
  91:Core/Src/ecatapp.c **** 
 114              		.loc 1 91 5 is_stmt 1 view .LVU17
  91:Core/Src/ecatapp.c **** 
 115              		.loc 1 91 49 is_stmt 0 view .LVU18
 116 000a 0A4C     		ldr	r4, .L11+4
 117 000c E269     		ldr	r2, [r4, #28]
  91:Core/Src/ecatapp.c **** 
 118              		.loc 1 91 29 view .LVU19
 119 000e A3F87E20 		strh	r2, [r3, #126]	@ movhi
  93:Core/Src/ecatapp.c ****     Obj.Sync_Manager_2_Parameters.CycleTime = sync0cycleTime;
 120              		.loc 1 93 5 is_stmt 1 view .LVU20
  93:Core/Src/ecatapp.c ****     Obj.Sync_Manager_2_Parameters.CycleTime = sync0cycleTime;
 121              		.loc 1 93 31 is_stmt 0 view .LVU21
 122 0012 FFF7FEFF 		bl	ESC_enable_DC
 123              	.LVL0:
 124 0016 0346     		mov	r3, r0
 125              	.LVL1:
  94:Core/Src/ecatapp.c ****     // Obj.Sync_Manager_3_Parameters.CycleTime = sync0cycleTime;
 126              		.loc 1 94 5 is_stmt 1 view .LVU22
  94:Core/Src/ecatapp.c ****     // Obj.Sync_Manager_3_Parameters.CycleTime = sync0cycleTime;
 127              		.loc 1 94 45 is_stmt 0 view .LVU23
 128 0018 6062     		str	r0, [r4, #36]
  97:Core/Src/ecatapp.c ****     if (watchdog_value < MIN_WATCHDOG_VALUE_NS) {
 129              		.loc 1 97 5 is_stmt 1 view .LVU24
  97:Core/Src/ecatapp.c ****     if (watchdog_value < MIN_WATCHDOG_VALUE_NS) {
 130              		.loc 1 97 28 is_stmt 0 view .LVU25
 131 001a 4000     		lsls	r0, r0, #1
 132              	.LVL2:
  98:Core/Src/ecatapp.c ****         watchdog_value = MIN_WATCHDOG_VALUE_NS;
 133              		.loc 1 98 5 is_stmt 1 view .LVU26
  98:Core/Src/ecatapp.c ****         watchdog_value = MIN_WATCHDOG_VALUE_NS;
 134              		.loc 1 98 8 is_stmt 0 view .LVU27
 135 001c 064A     		ldr	r2, .L11+8
 136 001e B2EB430F 		cmp	r2, r3, lsl #1
 137 0022 00DB     		blt	.L8
  99:Core/Src/ecatapp.c ****     }
ARM GAS  /tmp/ccTL5wgm.s 			page 6


 138              		.loc 1 99 24 view .LVU28
 139 0024 0548     		ldr	r0, .L11+12
 140              	.LVL3:
 141              	.L8:
 101:Core/Src/ecatapp.c **** 
 142              		.loc 1 101 5 is_stmt 1 view .LVU29
 143 0026 FFF7FEFF 		bl	APP_setwatchdog
 144              	.LVL4:
 103:Core/Src/ecatapp.c **** }
 145              		.loc 1 103 5 view .LVU30
 104:Core/Src/ecatapp.c **** 
 146              		.loc 1 104 1 is_stmt 0 view .LVU31
 147 002a 0020     		movs	r0, #0
 148 002c 10BD     		pop	{r4, pc}
 149              	.L12:
 150 002e 00BF     		.align	2
 151              	.L11:
 152 0030 00000000 		.word	ESCvar
 153 0034 00000000 		.word	.LANCHOR1
 154 0038 3F420F00 		.word	999999
 155 003c 40420F00 		.word	1000000
 156              		.cfi_endproc
 157              	.LFE129:
 159              		.section	.text.ecatapp,"ax",%progbits
 160              		.align	1
 161              		.global	ecatapp
 162              		.syntax unified
 163              		.thumb
 164              		.thumb_func
 166              	ecatapp:
 167              	.LFB130:
 107:Core/Src/ecatapp.c ****     cia402_state_machine(&cia402axis, Obj.Control_Word);
 168              		.loc 1 107 1 is_stmt 1 view -0
 169              		.cfi_startproc
 170              		@ args = 0, pretend = 0, frame = 0
 171              		@ frame_needed = 0, uses_anonymous_args = 0
 172 0000 08B5     		push	{r3, lr}
 173              		.cfi_def_cfa_offset 8
 174              		.cfi_offset 3, -8
 175              		.cfi_offset 14, -4
 108:Core/Src/ecatapp.c **** }
 176              		.loc 1 108 5 view .LVU33
 177 0002 034B     		ldr	r3, .L15
 178 0004 9989     		ldrh	r1, [r3, #12]
 179 0006 0348     		ldr	r0, .L15+4
 180 0008 FFF7FEFF 		bl	cia402_state_machine
 181              	.LVL5:
 109:Core/Src/ecatapp.c **** 
 182              		.loc 1 109 1 is_stmt 0 view .LVU34
 183 000c 08BD     		pop	{r3, pc}
 184              	.L16:
 185 000e 00BF     		.align	2
 186              	.L15:
 187 0010 00000000 		.word	.LANCHOR1
 188 0014 00000000 		.word	.LANCHOR0
 189              		.cfi_endproc
 190              	.LFE130:
ARM GAS  /tmp/ccTL5wgm.s 			page 7


 192              		.section	.text.EXTI1_IRQHandler,"ax",%progbits
 193              		.align	1
 194              		.global	EXTI1_IRQHandler
 195              		.syntax unified
 196              		.thumb
 197              		.thumb_func
 199              	EXTI1_IRQHandler:
 200              	.LFB126:
  57:Core/Src/ecatapp.c ****     if(EXTI_GetITStatus(EXTI_Line1) != RESET)
 201              		.loc 1 57 1 is_stmt 1 view -0
 202              		.cfi_startproc
 203              		@ args = 0, pretend = 0, frame = 0
 204              		@ frame_needed = 0, uses_anonymous_args = 0
 205 0000 08B5     		push	{r3, lr}
 206              		.cfi_def_cfa_offset 8
 207              		.cfi_offset 3, -8
 208              		.cfi_offset 14, -4
  58:Core/Src/ecatapp.c ****     {
 209              		.loc 1 58 5 view .LVU36
  58:Core/Src/ecatapp.c ****     {
 210              		.loc 1 58 8 is_stmt 0 view .LVU37
 211 0002 0220     		movs	r0, #2
 212 0004 FFF7FEFF 		bl	EXTI_GetITStatus
 213              	.LVL6:
  58:Core/Src/ecatapp.c ****     {
 214              		.loc 1 58 7 view .LVU38
 215 0008 00B9     		cbnz	r0, .L20
 216              	.L17:
  63:Core/Src/ecatapp.c **** 
 217              		.loc 1 63 1 view .LVU39
 218 000a 08BD     		pop	{r3, pc}
 219              	.L20:
  60:Core/Src/ecatapp.c ****         sync0_irq_flag = 1;
 220              		.loc 1 60 9 is_stmt 1 view .LVU40
 221 000c 0220     		movs	r0, #2
 222 000e FFF7FEFF 		bl	EXTI_ClearITPendingBit
 223              	.LVL7:
  61:Core/Src/ecatapp.c ****     }
 224              		.loc 1 61 9 view .LVU41
  61:Core/Src/ecatapp.c ****     }
 225              		.loc 1 61 24 is_stmt 0 view .LVU42
 226 0012 024B     		ldr	r3, .L21
 227 0014 0122     		movs	r2, #1
 228 0016 1A70     		strb	r2, [r3]
  63:Core/Src/ecatapp.c **** 
 229              		.loc 1 63 1 view .LVU43
 230 0018 F7E7     		b	.L17
 231              	.L22:
 232 001a 00BF     		.align	2
 233              	.L21:
 234 001c 00000000 		.word	.LANCHOR2
 235              		.cfi_endproc
 236              	.LFE126:
 238              		.section	.text.EXTI3_IRQHandler,"ax",%progbits
 239              		.align	1
 240              		.global	EXTI3_IRQHandler
 241              		.syntax unified
ARM GAS  /tmp/ccTL5wgm.s 			page 8


 242              		.thumb
 243              		.thumb_func
 245              	EXTI3_IRQHandler:
 246              	.LFB127:
  68:Core/Src/ecatapp.c ****     if(EXTI_GetITStatus(EXTI_Line3) != RESET)
 247              		.loc 1 68 1 is_stmt 1 view -0
 248              		.cfi_startproc
 249              		@ args = 0, pretend = 0, frame = 0
 250              		@ frame_needed = 0, uses_anonymous_args = 0
 251 0000 08B5     		push	{r3, lr}
 252              		.cfi_def_cfa_offset 8
 253              		.cfi_offset 3, -8
 254              		.cfi_offset 14, -4
  69:Core/Src/ecatapp.c ****     {
 255              		.loc 1 69 5 view .LVU45
  69:Core/Src/ecatapp.c ****     {
 256              		.loc 1 69 8 is_stmt 0 view .LVU46
 257 0002 0820     		movs	r0, #8
 258 0004 FFF7FEFF 		bl	EXTI_GetITStatus
 259              	.LVL8:
  69:Core/Src/ecatapp.c ****     {
 260              		.loc 1 69 7 view .LVU47
 261 0008 00B9     		cbnz	r0, .L26
 262              	.L23:
  74:Core/Src/ecatapp.c **** // **************************************************************
 263              		.loc 1 74 1 view .LVU48
 264 000a 08BD     		pop	{r3, pc}
 265              	.L26:
  71:Core/Src/ecatapp.c ****         pdi_irq_flag = 1;
 266              		.loc 1 71 9 is_stmt 1 view .LVU49
 267 000c 0820     		movs	r0, #8
 268 000e FFF7FEFF 		bl	EXTI_ClearITPendingBit
 269              	.LVL9:
  72:Core/Src/ecatapp.c ****     }
 270              		.loc 1 72 9 view .LVU50
  72:Core/Src/ecatapp.c ****     }
 271              		.loc 1 72 22 is_stmt 0 view .LVU51
 272 0012 024B     		ldr	r3, .L27
 273 0014 0122     		movs	r2, #1
 274 0016 1A70     		strb	r2, [r3]
  74:Core/Src/ecatapp.c **** // **************************************************************
 275              		.loc 1 74 1 view .LVU52
 276 0018 F7E7     		b	.L23
 277              	.L28:
 278 001a 00BF     		.align	2
 279              	.L27:
 280 001c 00000000 		.word	.LANCHOR3
 281              		.cfi_endproc
 282              	.LFE127:
 284              		.section	.text.ecatapp_init,"ax",%progbits
 285              		.align	1
 286              		.global	ecatapp_init
 287              		.syntax unified
 288              		.thumb
 289              		.thumb_func
 291              	ecatapp_init:
 292              	.LFB128:
ARM GAS  /tmp/ccTL5wgm.s 			page 9


  77:Core/Src/ecatapp.c ****     ecat_slv_init(&config);
 293              		.loc 1 77 25 is_stmt 1 view -0
 294              		.cfi_startproc
 295              		@ args = 0, pretend = 0, frame = 0
 296              		@ frame_needed = 0, uses_anonymous_args = 0
 297 0000 08B5     		push	{r3, lr}
 298              		.cfi_def_cfa_offset 8
 299              		.cfi_offset 3, -8
 300              		.cfi_offset 14, -4
  78:Core/Src/ecatapp.c ****     cia402_init(&cia402axis);
 301              		.loc 1 78 5 view .LVU54
 302 0002 0448     		ldr	r0, .L31
 303 0004 FFF7FEFF 		bl	ecat_slv_init
 304              	.LVL10:
  79:Core/Src/ecatapp.c **** 	init_override();
 305              		.loc 1 79 5 view .LVU55
 306 0008 0348     		ldr	r0, .L31+4
 307 000a FFF7FEFF 		bl	cia402_init
 308              	.LVL11:
  80:Core/Src/ecatapp.c **** }
 309              		.loc 1 80 2 view .LVU56
 310 000e FFF7FEFF 		bl	init_override
 311              	.LVL12:
  81:Core/Src/ecatapp.c **** 
 312              		.loc 1 81 1 is_stmt 0 view .LVU57
 313 0012 08BD     		pop	{r3, pc}
 314              	.L32:
 315              		.align	2
 316              	.L31:
 317 0014 00000000 		.word	.LANCHOR4
 318 0018 00000000 		.word	.LANCHOR0
 319              		.cfi_endproc
 320              	.LFE128:
 322              		.section	.text.cb_get_inputs,"ax",%progbits
 323              		.align	1
 324              		.global	cb_get_inputs
 325              		.syntax unified
 326              		.thumb
 327              		.thumb_func
 329              	cb_get_inputs:
 330              	.LFB131:
 113:Core/Src/ecatapp.c ****     /* SOES reqires this function but nothing to do here in CiA402 app */
 331              		.loc 1 113 1 is_stmt 1 view -0
 332              		.cfi_startproc
 333              		@ args = 0, pretend = 0, frame = 0
 334              		@ frame_needed = 0, uses_anonymous_args = 0
 335              		@ link register save eliminated.
 115:Core/Src/ecatapp.c **** 
 336              		.loc 1 115 1 view .LVU59
 337 0000 7047     		bx	lr
 338              		.cfi_endproc
 339              	.LFE131:
 341              		.section	.text.cb_set_outputs,"ax",%progbits
 342              		.align	1
 343              		.global	cb_set_outputs
 344              		.syntax unified
 345              		.thumb
ARM GAS  /tmp/ccTL5wgm.s 			page 10


 346              		.thumb_func
 348              	cb_set_outputs:
 349              	.LFB132:
 119:Core/Src/ecatapp.c ****     /* SOES reqires this function but nothing to do here in CiA402 app */
 350              		.loc 1 119 1 view -0
 351              		.cfi_startproc
 352              		@ args = 0, pretend = 0, frame = 0
 353              		@ frame_needed = 0, uses_anonymous_args = 0
 354              		@ link register save eliminated.
 121:Core/Src/ecatapp.c **** 
 355              		.loc 1 121 1 view .LVU61
 356 0000 7047     		bx	lr
 357              		.cfi_endproc
 358              	.LFE132:
 360              		.section	.text.ecatapp_loop,"ax",%progbits
 361              		.align	1
 362              		.global	ecatapp_loop
 363              		.syntax unified
 364              		.thumb
 365              		.thumb_func
 367              	ecatapp_loop:
 368              	.LFB135:
 139:Core/Src/ecatapp.c ****  
 140:Core/Src/ecatapp.c **** void ecatapp_loop(void)
 141:Core/Src/ecatapp.c **** {
 369              		.loc 1 141 1 view -0
 370              		.cfi_startproc
 371              		@ args = 0, pretend = 0, frame = 0
 372              		@ frame_needed = 0, uses_anonymous_args = 0
 373 0000 10B5     		push	{r4, lr}
 374              		.cfi_def_cfa_offset 8
 375              		.cfi_offset 4, -8
 376              		.cfi_offset 14, -4
 142:Core/Src/ecatapp.c ****     // stack in mixed mode
 143:Core/Src/ecatapp.c ****     if (sync0_irq_flag) {
 377              		.loc 1 143 5 view .LVU63
 378              		.loc 1 143 9 is_stmt 0 view .LVU64
 379 0002 174B     		ldr	r3, .L43
 380 0004 1B78     		ldrb	r3, [r3]	@ zero_extendqisi2
 381              		.loc 1 143 8 view .LVU65
 382 0006 9BB9     		cbnz	r3, .L42
 383              	.L36:
 144:Core/Src/ecatapp.c ****         ESC_updateALevent();        
 145:Core/Src/ecatapp.c ****         DIG_process (DIG_PROCESS_APP_HOOK_FLAG | DIG_PROCESS_INPUTS_FLAG);
 146:Core/Src/ecatapp.c ****         sync0_irq_flag = 0;
 147:Core/Src/ecatapp.c ****     }
 148:Core/Src/ecatapp.c ****     if (pdi_irq_flag) {
 384              		.loc 1 148 5 is_stmt 1 view .LVU66
 385              		.loc 1 148 9 is_stmt 0 view .LVU67
 386 0008 164B     		ldr	r3, .L43+4
 387 000a 1B78     		ldrb	r3, [r3]	@ zero_extendqisi2
 388              		.loc 1 148 8 view .LVU68
 389 000c 0BB3     		cbz	r3, .L37
 149:Core/Src/ecatapp.c ****         ESC_updateALevent();
 390              		.loc 1 149 9 is_stmt 1 view .LVU69
 391 000e 164C     		ldr	r4, .L43+8
 392 0010 0422     		movs	r2, #4
ARM GAS  /tmp/ccTL5wgm.s 			page 11


 393 0012 2146     		mov	r1, r4
 394 0014 4FF41160 		mov	r0, #2320
 395 0018 FFF7FEFF 		bl	ESC_read
 396              	.LVL13:
 397              		.loc 1 149 28 view .LVU70
 150:Core/Src/ecatapp.c ****         if (ESCvar.dcsync) {
 398              		.loc 1 150 9 view .LVU71
 399              		.loc 1 150 19 is_stmt 0 view .LVU72
 400 001c 14F8643C 		ldrb	r3, [r4, #-100]	@ zero_extendqisi2
 401              		.loc 1 150 12 view .LVU73
 402 0020 9BB1     		cbz	r3, .L38
 151:Core/Src/ecatapp.c ****             DIG_process (DIG_PROCESS_OUTPUTS_FLAG);    
 403              		.loc 1 151 13 is_stmt 1 view .LVU74
 404 0022 0220     		movs	r0, #2
 405 0024 FFF7FEFF 		bl	DIG_process
 406              	.LVL14:
 407              	.L39:
 152:Core/Src/ecatapp.c ****         } else {
 153:Core/Src/ecatapp.c ****             DIG_process (DIG_PROCESS_OUTPUTS_FLAG | DIG_PROCESS_APP_HOOK_FLAG | DIG_PROCESS_INPUTS_
 154:Core/Src/ecatapp.c ****         }
 155:Core/Src/ecatapp.c ****         pdi_irq_flag = 0;
 408              		.loc 1 155 9 view .LVU75
 409              		.loc 1 155 22 is_stmt 0 view .LVU76
 410 0028 0E4B     		ldr	r3, .L43+4
 411 002a 0022     		movs	r2, #0
 412 002c 1A70     		strb	r2, [r3]
 413              	.L35:
 156:Core/Src/ecatapp.c ****     } else {
 157:Core/Src/ecatapp.c ****         // ecat_slv_worker(ESCREG_ALEVENT_CONTROL | ESCREG_ALEVENT_SMCHANGE
 158:Core/Src/ecatapp.c ****         //                 | ESCREG_ALEVENT_SM0 | ESCREG_ALEVENT_SM1);
 159:Core/Src/ecatapp.c ****         ecat_slv_poll();
 160:Core/Src/ecatapp.c ****         DIG_process(DIG_PROCESS_WD_FLAG);
 161:Core/Src/ecatapp.c ****     }
 162:Core/Src/ecatapp.c **** }
 414              		.loc 1 162 1 view .LVU77
 415 002e 10BD     		pop	{r4, pc}
 416              	.L42:
 144:Core/Src/ecatapp.c ****         DIG_process (DIG_PROCESS_APP_HOOK_FLAG | DIG_PROCESS_INPUTS_FLAG);
 417              		.loc 1 144 9 is_stmt 1 view .LVU78
 418 0030 0422     		movs	r2, #4
 419 0032 0D49     		ldr	r1, .L43+8
 420 0034 4FF41160 		mov	r0, #2320
 421 0038 FFF7FEFF 		bl	ESC_read
 422              	.LVL15:
 144:Core/Src/ecatapp.c ****         DIG_process (DIG_PROCESS_APP_HOOK_FLAG | DIG_PROCESS_INPUTS_FLAG);
 423              		.loc 1 144 28 view .LVU79
 145:Core/Src/ecatapp.c ****         sync0_irq_flag = 0;
 424              		.loc 1 145 9 view .LVU80
 425 003c 0920     		movs	r0, #9
 426 003e FFF7FEFF 		bl	DIG_process
 427              	.LVL16:
 146:Core/Src/ecatapp.c ****     }
 428              		.loc 1 146 9 view .LVU81
 146:Core/Src/ecatapp.c ****     }
 429              		.loc 1 146 24 is_stmt 0 view .LVU82
 430 0042 074B     		ldr	r3, .L43
 431 0044 0022     		movs	r2, #0
ARM GAS  /tmp/ccTL5wgm.s 			page 12


 432 0046 1A70     		strb	r2, [r3]
 433 0048 DEE7     		b	.L36
 434              	.L38:
 153:Core/Src/ecatapp.c ****         }
 435              		.loc 1 153 13 is_stmt 1 view .LVU83
 436 004a 0B20     		movs	r0, #11
 437 004c FFF7FEFF 		bl	DIG_process
 438              	.LVL17:
 439 0050 EAE7     		b	.L39
 440              	.L37:
 159:Core/Src/ecatapp.c ****         DIG_process(DIG_PROCESS_WD_FLAG);
 441              		.loc 1 159 9 view .LVU84
 442 0052 FFF7FEFF 		bl	ecat_slv_poll
 443              	.LVL18:
 160:Core/Src/ecatapp.c ****     }
 444              		.loc 1 160 9 view .LVU85
 445 0056 0420     		movs	r0, #4
 446 0058 FFF7FEFF 		bl	DIG_process
 447              	.LVL19:
 448              		.loc 1 162 1 is_stmt 0 view .LVU86
 449 005c E7E7     		b	.L35
 450              	.L44:
 451 005e 00BF     		.align	2
 452              	.L43:
 453 0060 00000000 		.word	.LANCHOR2
 454 0064 00000000 		.word	.LANCHOR3
 455 0068 E0000000 		.word	ESCvar+224
 456              		.cfi_endproc
 457              	.LFE135:
 459              		.global	cia402axis
 460              		.section	.rodata.str1.4,"aMS",%progbits,1
 461              		.align	2
 462              	.LC0:
 463 0000 61783538 		.ascii	"ax58100\000"
 463      31303000 
 464              		.global	Obj
 465              		.section	.bss.Obj,"aw",%nobits
 466              		.align	2
 467              		.set	.LANCHOR1,. + 0
 470              	Obj:
 471 0000 00000000 		.space	80
 471      00000000 
 471      00000000 
 471      00000000 
 471      00000000 
 472              		.section	.bss.pdi_irq_flag,"aw",%nobits
 473              		.set	.LANCHOR3,. + 0
 476              	pdi_irq_flag:
 477 0000 00       		.space	1
 478              		.section	.bss.sync0_irq_flag,"aw",%nobits
 479              		.set	.LANCHOR2,. + 0
 482              	sync0_irq_flag:
 483 0000 00       		.space	1
 484              		.section	.data.cia402axis,"aw"
 485              		.align	2
 486              		.set	.LANCHOR0,. + 0
 489              	cia402axis:
ARM GAS  /tmp/ccTL5wgm.s 			page 13


 490 0000 00000000 		.space	12
 490      00000000 
 490      00000000 
 491 000c 00000000 		.word	app_cia402_init
 492 0010 00000000 		.word	app_cia402_mc
 493              		.section	.data.config,"aw"
 494              		.align	2
 495              		.set	.LANCHOR4,. + 0
 498              	config:
 499 0000 00000000 		.word	.LC0
 500 0004 01000000 		.word	1
 501 0008 FFFFFF7F 		.word	2147483647
 502 000c 00000000 		.space	4
 503 0010 00000000 		.word	0
 504 0014 00000000 		.word	0
 505 0018 00000000 		.word	0
 506 001c 00000000 		.word	ecatapp
 507 0020 00000000 		.word	0
 508 0024 00000000 		.word	0
 509 0028 00000000 		.word	0
 510 002c 00000000 		.space	8
 510      00000000 
 511 0034 00000000 		.word	rxpdo_override
 512 0038 00000000 		.word	txpdo_override
 513 003c 00000000 		.word	ESC_interrupt_enable
 514 0040 00000000 		.word	ESC_interrupt_disable
 515 0044 00000000 		.word	0
 516 0048 00000000 		.word	check_dc_handler
 517 004c 00000000 		.space	4
 518              		.text
 519              	.Letext0:
 520              		.file 2 "/usr/share/gcc-arm-none-eabi-10.3-2021.10/arm-none-eabi/include/machine/_default_types.h"
 521              		.file 3 "/usr/share/gcc-arm-none-eabi-10.3-2021.10/lib/gcc/arm-none-eabi/10.3.1/include/stddef.h"
 522              		.file 4 "/usr/share/gcc-arm-none-eabi-10.3-2021.10/arm-none-eabi/include/sys/_stdint.h"
 523              		.file 5 "Lib/soes/inc/esc.h"
 524              		.file 6 "Lib/soes-esi/utypes.h"
 525              		.file 7 "Lib/cia402device/cia402device.h"
 526              		.file 8 "Lib/soes/inc/ecat_slv.h"
 527              		.file 9 "Lib/soes_hal_bsp/inc/esc_irq.h"
 528              		.file 10 "Core/Inc/pdo_override.h"
 529              		.file 11 "Drivers/STM32F4xx_StdPeriph_Driver/inc/stm32f4xx_exti.h"
 530              		.file 12 "Drivers/CMSIS/Device/ST/STM32F4xx/Include/stm32f4xx.h"
ARM GAS  /tmp/ccTL5wgm.s 			page 14

