ARM GAS  /tmp/ccj1KyIg.s 			page 1


   1              		.cpu cortex-m4
   2              		.arch armv7e-m
   3              		.fpu fpv4-sp-d16
   4              		.eabi_attribute 27, 1
   5              		.eabi_attribute 28, 1
   6              		.eabi_attribute 20, 1
   7              		.eabi_attribute 21, 1
   8              		.eabi_attribute 23, 3
   9              		.eabi_attribute 24, 1
  10              		.eabi_attribute 25, 1
  11              		.eabi_attribute 26, 1
  12              		.eabi_attribute 30, 1
  13              		.eabi_attribute 34, 1
  14              		.eabi_attribute 18, 4
  15              		.file	"stm32f4_discovery.c"
  16              		.text
  17              	.Ltext0:
  18              		.cfi_sections	.debug_frame
  19              		.section	.text.STM_EVAL_LEDInit,"ax",%progbits
  20              		.align	1
  21              		.global	STM_EVAL_LEDInit
  22              		.syntax unified
  23              		.thumb
  24              		.thumb_func
  26              	STM_EVAL_LEDInit:
  27              	.LVL0:
  28              	.LFB123:
  29              		.file 1 "Lib/bsp/src/stm32f4_discovery.c"
   1:Lib/bsp/src/stm32f4_discovery.c **** /**
   2:Lib/bsp/src/stm32f4_discovery.c ****   ******************************************************************************
   3:Lib/bsp/src/stm32f4_discovery.c ****   * @file    stm32f4_discovery.c
   4:Lib/bsp/src/stm32f4_discovery.c ****   * @author  MCD Application Team
   5:Lib/bsp/src/stm32f4_discovery.c ****   * @version V1.1.0
   6:Lib/bsp/src/stm32f4_discovery.c ****   * @date    28-October-2011
   7:Lib/bsp/src/stm32f4_discovery.c ****   * @brief   This file provides set of firmware functions to manage Leds and
   8:Lib/bsp/src/stm32f4_discovery.c ****   *          push-button available on STM32F4-Discovery Kit from STMicroelectronics.
   9:Lib/bsp/src/stm32f4_discovery.c ****   ******************************************************************************
  10:Lib/bsp/src/stm32f4_discovery.c ****   * @attention
  11:Lib/bsp/src/stm32f4_discovery.c ****   *
  12:Lib/bsp/src/stm32f4_discovery.c ****   * THE PRESENT FIRMWARE WHICH IS FOR GUIDANCE ONLY AIMS AT PROVIDING CUSTOMERS
  13:Lib/bsp/src/stm32f4_discovery.c ****   * WITH CODING INFORMATION REGARDING THEIR PRODUCTS IN ORDER FOR THEM TO SAVE
  14:Lib/bsp/src/stm32f4_discovery.c ****   * TIME. AS A RESULT, STMICROELECTRONICS SHALL NOT BE HELD LIABLE FOR ANY
  15:Lib/bsp/src/stm32f4_discovery.c ****   * DIRECT, INDIRECT OR CONSEQUENTIAL DAMAGES WITH RESPECT TO ANY CLAIMS ARISING
  16:Lib/bsp/src/stm32f4_discovery.c ****   * FROM THE CONTENT OF SUCH FIRMWARE AND/OR THE USE MADE BY CUSTOMERS OF THE
  17:Lib/bsp/src/stm32f4_discovery.c ****   * CODING INFORMATION CONTAINED HEREIN IN CONNECTION WITH THEIR PRODUCTS.
  18:Lib/bsp/src/stm32f4_discovery.c ****   *
  19:Lib/bsp/src/stm32f4_discovery.c ****   * <h2><center>&copy; COPYRIGHT 2011 STMicroelectronics</center></h2>
  20:Lib/bsp/src/stm32f4_discovery.c ****   ******************************************************************************
  21:Lib/bsp/src/stm32f4_discovery.c ****   */
  22:Lib/bsp/src/stm32f4_discovery.c **** 
  23:Lib/bsp/src/stm32f4_discovery.c **** /* Includes ------------------------------------------------------------------*/
  24:Lib/bsp/src/stm32f4_discovery.c **** #include "stm32f4_discovery.h"
  25:Lib/bsp/src/stm32f4_discovery.c **** 
  26:Lib/bsp/src/stm32f4_discovery.c **** /** @addtogroup Utilities
  27:Lib/bsp/src/stm32f4_discovery.c ****   * @{
  28:Lib/bsp/src/stm32f4_discovery.c ****   */
  29:Lib/bsp/src/stm32f4_discovery.c **** 
ARM GAS  /tmp/ccj1KyIg.s 			page 2


  30:Lib/bsp/src/stm32f4_discovery.c **** /** @addtogroup STM32F4_DISCOVERY
  31:Lib/bsp/src/stm32f4_discovery.c ****   * @{
  32:Lib/bsp/src/stm32f4_discovery.c ****   */
  33:Lib/bsp/src/stm32f4_discovery.c **** 
  34:Lib/bsp/src/stm32f4_discovery.c **** /** @defgroup STM32F4_DISCOVERY_LOW_LEVEL
  35:Lib/bsp/src/stm32f4_discovery.c ****   * @brief This file provides set of firmware functions to manage Leds and push-button
  36:Lib/bsp/src/stm32f4_discovery.c ****   *        available on STM32F4-Discovery Kit from STMicroelectronics.
  37:Lib/bsp/src/stm32f4_discovery.c ****   * @{
  38:Lib/bsp/src/stm32f4_discovery.c ****   */
  39:Lib/bsp/src/stm32f4_discovery.c ****   
  40:Lib/bsp/src/stm32f4_discovery.c ****   const Led_TypeDef outPins[OUTPUT_BITS_COUNT] = { LED4, LED3, LED5, LED6 };
  41:Lib/bsp/src/stm32f4_discovery.c **** 
  42:Lib/bsp/src/stm32f4_discovery.c **** /** @defgroup STM32F4_DISCOVERY_LOW_LEVEL_Private_TypesDefinitions
  43:Lib/bsp/src/stm32f4_discovery.c ****   * @{
  44:Lib/bsp/src/stm32f4_discovery.c ****   */
  45:Lib/bsp/src/stm32f4_discovery.c **** /**
  46:Lib/bsp/src/stm32f4_discovery.c ****   * @}
  47:Lib/bsp/src/stm32f4_discovery.c ****   */
  48:Lib/bsp/src/stm32f4_discovery.c **** 
  49:Lib/bsp/src/stm32f4_discovery.c **** 
  50:Lib/bsp/src/stm32f4_discovery.c **** /** @defgroup STM32F4_DISCOVERY_LOW_LEVEL_Private_Defines
  51:Lib/bsp/src/stm32f4_discovery.c ****   * @{
  52:Lib/bsp/src/stm32f4_discovery.c ****   */
  53:Lib/bsp/src/stm32f4_discovery.c **** /**
  54:Lib/bsp/src/stm32f4_discovery.c ****   * @}
  55:Lib/bsp/src/stm32f4_discovery.c ****   */
  56:Lib/bsp/src/stm32f4_discovery.c **** 
  57:Lib/bsp/src/stm32f4_discovery.c **** 
  58:Lib/bsp/src/stm32f4_discovery.c **** /** @defgroup STM32F4_DISCOVERY_LOW_LEVEL_Private_Macros
  59:Lib/bsp/src/stm32f4_discovery.c ****   * @{
  60:Lib/bsp/src/stm32f4_discovery.c ****   */
  61:Lib/bsp/src/stm32f4_discovery.c **** /**
  62:Lib/bsp/src/stm32f4_discovery.c ****   * @}
  63:Lib/bsp/src/stm32f4_discovery.c ****   */
  64:Lib/bsp/src/stm32f4_discovery.c **** 
  65:Lib/bsp/src/stm32f4_discovery.c **** 
  66:Lib/bsp/src/stm32f4_discovery.c **** /** @defgroup STM32F4_DISCOVERY_LOW_LEVEL_Private_Variables
  67:Lib/bsp/src/stm32f4_discovery.c ****   * @{
  68:Lib/bsp/src/stm32f4_discovery.c ****   */
  69:Lib/bsp/src/stm32f4_discovery.c ****   
  70:Lib/bsp/src/stm32f4_discovery.c **** GPIO_TypeDef* GPIO_PORT[LEDn] = {LED4_GPIO_PORT, LED3_GPIO_PORT, LED5_GPIO_PORT,
  71:Lib/bsp/src/stm32f4_discovery.c ****                                  LED6_GPIO_PORT};
  72:Lib/bsp/src/stm32f4_discovery.c **** const uint16_t GPIO_PIN[LEDn] = {LED4_PIN, LED3_PIN, LED5_PIN,
  73:Lib/bsp/src/stm32f4_discovery.c ****                                  LED6_PIN};
  74:Lib/bsp/src/stm32f4_discovery.c **** const uint32_t GPIO_CLK[LEDn] = {LED4_GPIO_CLK, LED3_GPIO_CLK, LED5_GPIO_CLK,
  75:Lib/bsp/src/stm32f4_discovery.c ****                                  LED6_GPIO_CLK};
  76:Lib/bsp/src/stm32f4_discovery.c **** 
  77:Lib/bsp/src/stm32f4_discovery.c **** NVIC_InitTypeDef   NVIC_InitStructure;
  78:Lib/bsp/src/stm32f4_discovery.c **** 
  79:Lib/bsp/src/stm32f4_discovery.c **** /**
  80:Lib/bsp/src/stm32f4_discovery.c ****   * @}
  81:Lib/bsp/src/stm32f4_discovery.c ****   */
  82:Lib/bsp/src/stm32f4_discovery.c **** 
  83:Lib/bsp/src/stm32f4_discovery.c **** 
  84:Lib/bsp/src/stm32f4_discovery.c **** /** @defgroup STM32F4_DISCOVERY_LOW_LEVEL_Private_FunctionPrototypes
  85:Lib/bsp/src/stm32f4_discovery.c ****   * @{
  86:Lib/bsp/src/stm32f4_discovery.c ****   */
ARM GAS  /tmp/ccj1KyIg.s 			page 3


  87:Lib/bsp/src/stm32f4_discovery.c **** 
  88:Lib/bsp/src/stm32f4_discovery.c **** /**
  89:Lib/bsp/src/stm32f4_discovery.c ****   * @}
  90:Lib/bsp/src/stm32f4_discovery.c ****   */
  91:Lib/bsp/src/stm32f4_discovery.c **** 
  92:Lib/bsp/src/stm32f4_discovery.c **** /** @defgroup STM32F4_DISCOVERY_LOW_LEVEL_Private_Functions
  93:Lib/bsp/src/stm32f4_discovery.c ****   * @{
  94:Lib/bsp/src/stm32f4_discovery.c ****   */
  95:Lib/bsp/src/stm32f4_discovery.c **** 
  96:Lib/bsp/src/stm32f4_discovery.c **** /**
  97:Lib/bsp/src/stm32f4_discovery.c ****   * @brief  Configures LED GPIO.
  98:Lib/bsp/src/stm32f4_discovery.c ****   * @param  Led: Specifies the Led to be configured.
  99:Lib/bsp/src/stm32f4_discovery.c ****   *   This parameter can be one of following parameters:
 100:Lib/bsp/src/stm32f4_discovery.c ****   *     @arg LED4
 101:Lib/bsp/src/stm32f4_discovery.c ****   *     @arg LED3
 102:Lib/bsp/src/stm32f4_discovery.c ****   *     @arg LED5
 103:Lib/bsp/src/stm32f4_discovery.c ****   *     @arg LED6
 104:Lib/bsp/src/stm32f4_discovery.c ****   * @retval None
 105:Lib/bsp/src/stm32f4_discovery.c ****   */
 106:Lib/bsp/src/stm32f4_discovery.c **** void STM_EVAL_LEDInit(Led_TypeDef Led)
 107:Lib/bsp/src/stm32f4_discovery.c **** {
  30              		.loc 1 107 1 view -0
  31              		.cfi_startproc
  32              		@ args = 0, pretend = 0, frame = 8
  33              		@ frame_needed = 0, uses_anonymous_args = 0
  34              		.loc 1 107 1 is_stmt 0 view .LVU1
  35 0000 10B5     		push	{r4, lr}
  36              		.cfi_def_cfa_offset 8
  37              		.cfi_offset 4, -8
  38              		.cfi_offset 14, -4
  39 0002 82B0     		sub	sp, sp, #8
  40              		.cfi_def_cfa_offset 16
  41 0004 0446     		mov	r4, r0
 108:Lib/bsp/src/stm32f4_discovery.c ****   GPIO_InitTypeDef  GPIO_InitStructure;
  42              		.loc 1 108 3 is_stmt 1 view .LVU2
 109:Lib/bsp/src/stm32f4_discovery.c **** 
 110:Lib/bsp/src/stm32f4_discovery.c ****   /* Enable the GPIO_LED Clock */
 111:Lib/bsp/src/stm32f4_discovery.c ****   RCC_AHB1PeriphClockCmd(GPIO_CLK[Led], ENABLE);
  43              		.loc 1 111 3 view .LVU3
  44 0006 0121     		movs	r1, #1
  45 0008 0D4B     		ldr	r3, .L3
  46 000a 53F82000 		ldr	r0, [r3, r0, lsl #2]
  47              	.LVL1:
  48              		.loc 1 111 3 is_stmt 0 view .LVU4
  49 000e FFF7FEFF 		bl	RCC_AHB1PeriphClockCmd
  50              	.LVL2:
 112:Lib/bsp/src/stm32f4_discovery.c **** 
 113:Lib/bsp/src/stm32f4_discovery.c ****   /* Configure the GPIO_LED pin */
 114:Lib/bsp/src/stm32f4_discovery.c ****   GPIO_InitStructure.GPIO_Pin = GPIO_PIN[Led];
  51              		.loc 1 114 3 is_stmt 1 view .LVU5
  52              		.loc 1 114 41 is_stmt 0 view .LVU6
  53 0012 0C4B     		ldr	r3, .L3+4
  54 0014 33F81430 		ldrh	r3, [r3, r4, lsl #1]
  55              		.loc 1 114 31 view .LVU7
  56 0018 0093     		str	r3, [sp]
 115:Lib/bsp/src/stm32f4_discovery.c ****   GPIO_InitStructure.GPIO_Mode = GPIO_Mode_OUT;
  57              		.loc 1 115 3 is_stmt 1 view .LVU8
ARM GAS  /tmp/ccj1KyIg.s 			page 4


  58              		.loc 1 115 32 is_stmt 0 view .LVU9
  59 001a 0123     		movs	r3, #1
  60 001c 8DF80430 		strb	r3, [sp, #4]
 116:Lib/bsp/src/stm32f4_discovery.c ****   GPIO_InitStructure.GPIO_OType = GPIO_OType_PP;
  61              		.loc 1 116 3 is_stmt 1 view .LVU10
  62              		.loc 1 116 33 is_stmt 0 view .LVU11
  63 0020 0022     		movs	r2, #0
  64 0022 8DF80620 		strb	r2, [sp, #6]
 117:Lib/bsp/src/stm32f4_discovery.c ****   GPIO_InitStructure.GPIO_PuPd = GPIO_PuPd_UP;
  65              		.loc 1 117 3 is_stmt 1 view .LVU12
  66              		.loc 1 117 32 is_stmt 0 view .LVU13
  67 0026 8DF80730 		strb	r3, [sp, #7]
 118:Lib/bsp/src/stm32f4_discovery.c ****   GPIO_InitStructure.GPIO_Speed = GPIO_Speed_50MHz;
  68              		.loc 1 118 3 is_stmt 1 view .LVU14
  69              		.loc 1 118 33 is_stmt 0 view .LVU15
  70 002a 0223     		movs	r3, #2
  71 002c 8DF80530 		strb	r3, [sp, #5]
 119:Lib/bsp/src/stm32f4_discovery.c ****   GPIO_Init(GPIO_PORT[Led], &GPIO_InitStructure);
  72              		.loc 1 119 3 is_stmt 1 view .LVU16
  73 0030 6946     		mov	r1, sp
  74 0032 054B     		ldr	r3, .L3+8
  75 0034 53F82400 		ldr	r0, [r3, r4, lsl #2]
  76 0038 FFF7FEFF 		bl	GPIO_Init
  77              	.LVL3:
 120:Lib/bsp/src/stm32f4_discovery.c **** }
  78              		.loc 1 120 1 is_stmt 0 view .LVU17
  79 003c 02B0     		add	sp, sp, #8
  80              		.cfi_def_cfa_offset 8
  81              		@ sp needed
  82 003e 10BD     		pop	{r4, pc}
  83              	.L4:
  84              		.align	2
  85              	.L3:
  86 0040 00000000 		.word	.LANCHOR0
  87 0044 00000000 		.word	.LANCHOR1
  88 0048 00000000 		.word	.LANCHOR2
  89              		.cfi_endproc
  90              	.LFE123:
  92              		.section	.text.STM_EVAL_LEDOn,"ax",%progbits
  93              		.align	1
  94              		.global	STM_EVAL_LEDOn
  95              		.syntax unified
  96              		.thumb
  97              		.thumb_func
  99              	STM_EVAL_LEDOn:
 100              	.LVL4:
 101              	.LFB124:
 121:Lib/bsp/src/stm32f4_discovery.c **** 
 122:Lib/bsp/src/stm32f4_discovery.c **** /**
 123:Lib/bsp/src/stm32f4_discovery.c ****   * @brief  Turns selected LED On.
 124:Lib/bsp/src/stm32f4_discovery.c ****   * @param  Led: Specifies the Led to be set on.
 125:Lib/bsp/src/stm32f4_discovery.c ****   *   This parameter can be one of following parameters:
 126:Lib/bsp/src/stm32f4_discovery.c ****   *     @arg LED4
 127:Lib/bsp/src/stm32f4_discovery.c ****   *     @arg LED3
 128:Lib/bsp/src/stm32f4_discovery.c ****   *     @arg LED5
 129:Lib/bsp/src/stm32f4_discovery.c ****   *     @arg LED6
 130:Lib/bsp/src/stm32f4_discovery.c ****   * @retval None
ARM GAS  /tmp/ccj1KyIg.s 			page 5


 131:Lib/bsp/src/stm32f4_discovery.c ****   */
 132:Lib/bsp/src/stm32f4_discovery.c **** void STM_EVAL_LEDOn(Led_TypeDef Led)
 133:Lib/bsp/src/stm32f4_discovery.c **** {
 102              		.loc 1 133 1 is_stmt 1 view -0
 103              		.cfi_startproc
 104              		@ args = 0, pretend = 0, frame = 0
 105              		@ frame_needed = 0, uses_anonymous_args = 0
 106              		@ link register save eliminated.
 134:Lib/bsp/src/stm32f4_discovery.c ****   GPIO_PORT[Led]->BSRRL = GPIO_PIN[Led];
 107              		.loc 1 134 3 view .LVU19
 108              		.loc 1 134 12 is_stmt 0 view .LVU20
 109 0000 034B     		ldr	r3, .L6
 110 0002 53F82030 		ldr	r3, [r3, r0, lsl #2]
 111              		.loc 1 134 35 view .LVU21
 112 0006 034A     		ldr	r2, .L6+4
 113 0008 32F81020 		ldrh	r2, [r2, r0, lsl #1]
 114              		.loc 1 134 25 view .LVU22
 115 000c 1A83     		strh	r2, [r3, #24]	@ movhi
 135:Lib/bsp/src/stm32f4_discovery.c **** }
 116              		.loc 1 135 1 view .LVU23
 117 000e 7047     		bx	lr
 118              	.L7:
 119              		.align	2
 120              	.L6:
 121 0010 00000000 		.word	.LANCHOR2
 122 0014 00000000 		.word	.LANCHOR1
 123              		.cfi_endproc
 124              	.LFE124:
 126              		.section	.text.STM_EVAL_LEDOff,"ax",%progbits
 127              		.align	1
 128              		.global	STM_EVAL_LEDOff
 129              		.syntax unified
 130              		.thumb
 131              		.thumb_func
 133              	STM_EVAL_LEDOff:
 134              	.LVL5:
 135              	.LFB125:
 136:Lib/bsp/src/stm32f4_discovery.c **** 
 137:Lib/bsp/src/stm32f4_discovery.c **** /**
 138:Lib/bsp/src/stm32f4_discovery.c ****   * @brief  Turns selected LED Off.
 139:Lib/bsp/src/stm32f4_discovery.c ****   * @param  Led: Specifies the Led to be set off.
 140:Lib/bsp/src/stm32f4_discovery.c ****   *   This parameter can be one of following parameters:
 141:Lib/bsp/src/stm32f4_discovery.c ****   *     @arg LED4
 142:Lib/bsp/src/stm32f4_discovery.c ****   *     @arg LED3
 143:Lib/bsp/src/stm32f4_discovery.c ****   *     @arg LED5
 144:Lib/bsp/src/stm32f4_discovery.c ****   *     @arg LED6
 145:Lib/bsp/src/stm32f4_discovery.c ****   * @retval None
 146:Lib/bsp/src/stm32f4_discovery.c ****   */
 147:Lib/bsp/src/stm32f4_discovery.c **** void STM_EVAL_LEDOff(Led_TypeDef Led)
 148:Lib/bsp/src/stm32f4_discovery.c **** {
 136              		.loc 1 148 1 is_stmt 1 view -0
 137              		.cfi_startproc
 138              		@ args = 0, pretend = 0, frame = 0
 139              		@ frame_needed = 0, uses_anonymous_args = 0
 140              		@ link register save eliminated.
 149:Lib/bsp/src/stm32f4_discovery.c ****   GPIO_PORT[Led]->BSRRH = GPIO_PIN[Led];
 141              		.loc 1 149 3 view .LVU25
ARM GAS  /tmp/ccj1KyIg.s 			page 6


 142              		.loc 1 149 12 is_stmt 0 view .LVU26
 143 0000 034B     		ldr	r3, .L9
 144 0002 53F82030 		ldr	r3, [r3, r0, lsl #2]
 145              		.loc 1 149 35 view .LVU27
 146 0006 034A     		ldr	r2, .L9+4
 147 0008 32F81020 		ldrh	r2, [r2, r0, lsl #1]
 148              		.loc 1 149 25 view .LVU28
 149 000c 5A83     		strh	r2, [r3, #26]	@ movhi
 150:Lib/bsp/src/stm32f4_discovery.c **** }
 150              		.loc 1 150 1 view .LVU29
 151 000e 7047     		bx	lr
 152              	.L10:
 153              		.align	2
 154              	.L9:
 155 0010 00000000 		.word	.LANCHOR2
 156 0014 00000000 		.word	.LANCHOR1
 157              		.cfi_endproc
 158              	.LFE125:
 160              		.section	.text.STM_EVAL_LEDToggle,"ax",%progbits
 161              		.align	1
 162              		.global	STM_EVAL_LEDToggle
 163              		.syntax unified
 164              		.thumb
 165              		.thumb_func
 167              	STM_EVAL_LEDToggle:
 168              	.LVL6:
 169              	.LFB126:
 151:Lib/bsp/src/stm32f4_discovery.c **** 
 152:Lib/bsp/src/stm32f4_discovery.c **** /**
 153:Lib/bsp/src/stm32f4_discovery.c ****   * @brief  Toggles the selected LED.
 154:Lib/bsp/src/stm32f4_discovery.c ****   * @param  Led: Specifies the Led to be toggled.
 155:Lib/bsp/src/stm32f4_discovery.c ****   *   This parameter can be one of following parameters:
 156:Lib/bsp/src/stm32f4_discovery.c ****   *     @arg LED4
 157:Lib/bsp/src/stm32f4_discovery.c ****   *     @arg LED3
 158:Lib/bsp/src/stm32f4_discovery.c ****   *     @arg LED5
 159:Lib/bsp/src/stm32f4_discovery.c ****   *     @arg LED6
 160:Lib/bsp/src/stm32f4_discovery.c ****   * @retval None
 161:Lib/bsp/src/stm32f4_discovery.c ****   */
 162:Lib/bsp/src/stm32f4_discovery.c **** void STM_EVAL_LEDToggle(Led_TypeDef Led)
 163:Lib/bsp/src/stm32f4_discovery.c **** {
 170              		.loc 1 163 1 is_stmt 1 view -0
 171              		.cfi_startproc
 172              		@ args = 0, pretend = 0, frame = 0
 173              		@ frame_needed = 0, uses_anonymous_args = 0
 174              		@ link register save eliminated.
 164:Lib/bsp/src/stm32f4_discovery.c ****   GPIO_PORT[Led]->ODR ^= GPIO_PIN[Led];
 175              		.loc 1 164 3 view .LVU31
 176              		.loc 1 164 12 is_stmt 0 view .LVU32
 177 0000 044B     		ldr	r3, .L12
 178 0002 53F82020 		ldr	r2, [r3, r0, lsl #2]
 179              		.loc 1 164 23 view .LVU33
 180 0006 5369     		ldr	r3, [r2, #20]
 181              		.loc 1 164 34 view .LVU34
 182 0008 0349     		ldr	r1, .L12+4
 183 000a 31F81010 		ldrh	r1, [r1, r0, lsl #1]
 184              		.loc 1 164 23 view .LVU35
 185 000e 4B40     		eors	r3, r3, r1
ARM GAS  /tmp/ccj1KyIg.s 			page 7


 186 0010 5361     		str	r3, [r2, #20]
 165:Lib/bsp/src/stm32f4_discovery.c **** }
 187              		.loc 1 165 1 view .LVU36
 188 0012 7047     		bx	lr
 189              	.L13:
 190              		.align	2
 191              	.L12:
 192 0014 00000000 		.word	.LANCHOR2
 193 0018 00000000 		.word	.LANCHOR1
 194              		.cfi_endproc
 195              	.LFE126:
 197              		.section	.text.STM_EVAL_PBInit,"ax",%progbits
 198              		.align	1
 199              		.global	STM_EVAL_PBInit
 200              		.syntax unified
 201              		.thumb
 202              		.thumb_func
 204              	STM_EVAL_PBInit:
 205              	.LVL7:
 206              	.LFB127:
 166:Lib/bsp/src/stm32f4_discovery.c **** 
 167:Lib/bsp/src/stm32f4_discovery.c **** /**
 168:Lib/bsp/src/stm32f4_discovery.c ****   * @brief  Configures Button GPIO and EXTI Line.
 169:Lib/bsp/src/stm32f4_discovery.c ****   * @param  Button: Specifies the Button to be configured.
 170:Lib/bsp/src/stm32f4_discovery.c ****   *   This parameter should be: BUTTON_USER
 171:Lib/bsp/src/stm32f4_discovery.c ****   * @param  Button_Mode: Specifies Button mode.
 172:Lib/bsp/src/stm32f4_discovery.c ****   *   This parameter can be one of following parameters:
 173:Lib/bsp/src/stm32f4_discovery.c ****   *     @arg BUTTON_MODE_GPIO: Button will be used as simple IO
 174:Lib/bsp/src/stm32f4_discovery.c ****   *     @arg BUTTON_MODE_EXTI: Button will be connected to EXTI line with interrupt
 175:Lib/bsp/src/stm32f4_discovery.c ****   *                            generation capability
 176:Lib/bsp/src/stm32f4_discovery.c ****   * @retval None
 177:Lib/bsp/src/stm32f4_discovery.c ****   */
 178:Lib/bsp/src/stm32f4_discovery.c **** void STM_EVAL_PBInit(ButtonMode_TypeDef Button_Mode)
 179:Lib/bsp/src/stm32f4_discovery.c **** {
 207              		.loc 1 179 1 is_stmt 1 view -0
 208              		.cfi_startproc
 209              		@ args = 0, pretend = 0, frame = 24
 210              		@ frame_needed = 0, uses_anonymous_args = 0
 211              		.loc 1 179 1 is_stmt 0 view .LVU38
 212 0000 10B5     		push	{r4, lr}
 213              		.cfi_def_cfa_offset 8
 214              		.cfi_offset 4, -8
 215              		.cfi_offset 14, -4
 216 0002 86B0     		sub	sp, sp, #24
 217              		.cfi_def_cfa_offset 32
 218 0004 0446     		mov	r4, r0
 180:Lib/bsp/src/stm32f4_discovery.c ****   GPIO_InitTypeDef GPIO_InitStructure;
 219              		.loc 1 180 3 is_stmt 1 view .LVU39
 181:Lib/bsp/src/stm32f4_discovery.c ****   EXTI_InitTypeDef EXTI_InitStructure;
 220              		.loc 1 181 3 view .LVU40
 182:Lib/bsp/src/stm32f4_discovery.c ****   NVIC_InitTypeDef NVIC_InitStructure;
 221              		.loc 1 182 3 view .LVU41
 183:Lib/bsp/src/stm32f4_discovery.c **** 
 184:Lib/bsp/src/stm32f4_discovery.c ****   /* Enable the BUTTON Clock */
 185:Lib/bsp/src/stm32f4_discovery.c ****   RCC_AHB1PeriphClockCmd(USER_BUTTON_GPIO_CLK, ENABLE);
 222              		.loc 1 185 3 view .LVU42
 223 0006 0121     		movs	r1, #1
ARM GAS  /tmp/ccj1KyIg.s 			page 8


 224 0008 0846     		mov	r0, r1
 225              	.LVL8:
 226              		.loc 1 185 3 is_stmt 0 view .LVU43
 227 000a FFF7FEFF 		bl	RCC_AHB1PeriphClockCmd
 228              	.LVL9:
 186:Lib/bsp/src/stm32f4_discovery.c ****   RCC_APB2PeriphClockCmd(RCC_APB2Periph_SYSCFG, ENABLE);
 229              		.loc 1 186 3 is_stmt 1 view .LVU44
 230 000e 0121     		movs	r1, #1
 231 0010 4FF48040 		mov	r0, #16384
 232 0014 FFF7FEFF 		bl	RCC_APB2PeriphClockCmd
 233              	.LVL10:
 187:Lib/bsp/src/stm32f4_discovery.c **** 
 188:Lib/bsp/src/stm32f4_discovery.c ****   /* Configure Button pin as input */
 189:Lib/bsp/src/stm32f4_discovery.c ****   GPIO_InitStructure.GPIO_Mode = GPIO_Mode_IN;
 234              		.loc 1 189 3 view .LVU45
 235              		.loc 1 189 32 is_stmt 0 view .LVU46
 236 0018 0023     		movs	r3, #0
 237 001a 8DF81430 		strb	r3, [sp, #20]
 190:Lib/bsp/src/stm32f4_discovery.c ****   GPIO_InitStructure.GPIO_PuPd = GPIO_PuPd_NOPULL;
 238              		.loc 1 190 3 is_stmt 1 view .LVU47
 239              		.loc 1 190 32 is_stmt 0 view .LVU48
 240 001e 8DF81730 		strb	r3, [sp, #23]
 191:Lib/bsp/src/stm32f4_discovery.c ****   GPIO_InitStructure.GPIO_Pin = USER_BUTTON_PIN;
 241              		.loc 1 191 3 is_stmt 1 view .LVU49
 242              		.loc 1 191 31 is_stmt 0 view .LVU50
 243 0022 0123     		movs	r3, #1
 244 0024 0493     		str	r3, [sp, #16]
 192:Lib/bsp/src/stm32f4_discovery.c ****   GPIO_Init(USER_BUTTON_GPIO_PORT, &GPIO_InitStructure);
 245              		.loc 1 192 3 is_stmt 1 view .LVU51
 246 0026 04A9     		add	r1, sp, #16
 247 0028 1248     		ldr	r0, .L18
 248 002a FFF7FEFF 		bl	GPIO_Init
 249              	.LVL11:
 193:Lib/bsp/src/stm32f4_discovery.c **** 
 194:Lib/bsp/src/stm32f4_discovery.c ****   if (Button_Mode == BUTTON_MODE_EXTI)
 250              		.loc 1 194 3 view .LVU52
 251              		.loc 1 194 6 is_stmt 0 view .LVU53
 252 002e 012C     		cmp	r4, #1
 253 0030 01D0     		beq	.L17
 254              	.L14:
 195:Lib/bsp/src/stm32f4_discovery.c ****   {
 196:Lib/bsp/src/stm32f4_discovery.c ****     /* Connect Button EXTI Line to Button GPIO Pin */
 197:Lib/bsp/src/stm32f4_discovery.c ****     SYSCFG_EXTILineConfig(USER_BUTTON_EXTI_PORT_SOURCE, USER_BUTTON_EXTI_PIN_SOURCE);
 198:Lib/bsp/src/stm32f4_discovery.c **** 
 199:Lib/bsp/src/stm32f4_discovery.c ****     /* Configure Button EXTI line */
 200:Lib/bsp/src/stm32f4_discovery.c ****     EXTI_InitStructure.EXTI_Line = USER_BUTTON_EXTI_LINE;
 201:Lib/bsp/src/stm32f4_discovery.c ****     EXTI_InitStructure.EXTI_Mode = EXTI_Mode_Interrupt;
 202:Lib/bsp/src/stm32f4_discovery.c ****     EXTI_InitStructure.EXTI_Trigger = EXTI_Trigger_Rising;
 203:Lib/bsp/src/stm32f4_discovery.c ****     EXTI_InitStructure.EXTI_LineCmd = ENABLE;
 204:Lib/bsp/src/stm32f4_discovery.c ****     EXTI_Init(&EXTI_InitStructure);
 205:Lib/bsp/src/stm32f4_discovery.c **** 
 206:Lib/bsp/src/stm32f4_discovery.c ****     /* Enable and set Button EXTI Interrupt to the lowest priority */
 207:Lib/bsp/src/stm32f4_discovery.c ****     NVIC_InitStructure.NVIC_IRQChannel = USER_BUTTON_EXTI_IRQn;
 208:Lib/bsp/src/stm32f4_discovery.c ****     NVIC_InitStructure.NVIC_IRQChannelPreemptionPriority = 0x0F;
 209:Lib/bsp/src/stm32f4_discovery.c ****     NVIC_InitStructure.NVIC_IRQChannelSubPriority = 0x0F;
 210:Lib/bsp/src/stm32f4_discovery.c ****     NVIC_InitStructure.NVIC_IRQChannelCmd = ENABLE;
 211:Lib/bsp/src/stm32f4_discovery.c **** 
ARM GAS  /tmp/ccj1KyIg.s 			page 9


 212:Lib/bsp/src/stm32f4_discovery.c ****     NVIC_Init(&NVIC_InitStructure);
 213:Lib/bsp/src/stm32f4_discovery.c ****   }
 214:Lib/bsp/src/stm32f4_discovery.c **** }
 255              		.loc 1 214 1 view .LVU54
 256 0032 06B0     		add	sp, sp, #24
 257              		.cfi_remember_state
 258              		.cfi_def_cfa_offset 8
 259              		@ sp needed
 260 0034 10BD     		pop	{r4, pc}
 261              	.L17:
 262              		.cfi_restore_state
 197:Lib/bsp/src/stm32f4_discovery.c **** 
 263              		.loc 1 197 5 is_stmt 1 view .LVU55
 264 0036 0021     		movs	r1, #0
 265 0038 0846     		mov	r0, r1
 266 003a FFF7FEFF 		bl	SYSCFG_EXTILineConfig
 267              	.LVL12:
 200:Lib/bsp/src/stm32f4_discovery.c ****     EXTI_InitStructure.EXTI_Mode = EXTI_Mode_Interrupt;
 268              		.loc 1 200 5 view .LVU56
 200:Lib/bsp/src/stm32f4_discovery.c ****     EXTI_InitStructure.EXTI_Mode = EXTI_Mode_Interrupt;
 269              		.loc 1 200 34 is_stmt 0 view .LVU57
 270 003e 0294     		str	r4, [sp, #8]
 201:Lib/bsp/src/stm32f4_discovery.c ****     EXTI_InitStructure.EXTI_Trigger = EXTI_Trigger_Rising;
 271              		.loc 1 201 5 is_stmt 1 view .LVU58
 201:Lib/bsp/src/stm32f4_discovery.c ****     EXTI_InitStructure.EXTI_Trigger = EXTI_Trigger_Rising;
 272              		.loc 1 201 34 is_stmt 0 view .LVU59
 273 0040 0023     		movs	r3, #0
 274 0042 8DF80C30 		strb	r3, [sp, #12]
 202:Lib/bsp/src/stm32f4_discovery.c ****     EXTI_InitStructure.EXTI_LineCmd = ENABLE;
 275              		.loc 1 202 5 is_stmt 1 view .LVU60
 202:Lib/bsp/src/stm32f4_discovery.c ****     EXTI_InitStructure.EXTI_LineCmd = ENABLE;
 276              		.loc 1 202 37 is_stmt 0 view .LVU61
 277 0046 0823     		movs	r3, #8
 278 0048 8DF80D30 		strb	r3, [sp, #13]
 203:Lib/bsp/src/stm32f4_discovery.c ****     EXTI_Init(&EXTI_InitStructure);
 279              		.loc 1 203 5 is_stmt 1 view .LVU62
 203:Lib/bsp/src/stm32f4_discovery.c ****     EXTI_Init(&EXTI_InitStructure);
 280              		.loc 1 203 37 is_stmt 0 view .LVU63
 281 004c 8DF80E40 		strb	r4, [sp, #14]
 204:Lib/bsp/src/stm32f4_discovery.c **** 
 282              		.loc 1 204 5 is_stmt 1 view .LVU64
 283 0050 0DEB0300 		add	r0, sp, r3
 284 0054 FFF7FEFF 		bl	EXTI_Init
 285              	.LVL13:
 207:Lib/bsp/src/stm32f4_discovery.c ****     NVIC_InitStructure.NVIC_IRQChannelPreemptionPriority = 0x0F;
 286              		.loc 1 207 5 view .LVU65
 207:Lib/bsp/src/stm32f4_discovery.c ****     NVIC_InitStructure.NVIC_IRQChannelPreemptionPriority = 0x0F;
 287              		.loc 1 207 40 is_stmt 0 view .LVU66
 288 0058 0623     		movs	r3, #6
 289 005a 8DF80430 		strb	r3, [sp, #4]
 208:Lib/bsp/src/stm32f4_discovery.c ****     NVIC_InitStructure.NVIC_IRQChannelSubPriority = 0x0F;
 290              		.loc 1 208 5 is_stmt 1 view .LVU67
 208:Lib/bsp/src/stm32f4_discovery.c ****     NVIC_InitStructure.NVIC_IRQChannelSubPriority = 0x0F;
 291              		.loc 1 208 58 is_stmt 0 view .LVU68
 292 005e 0F23     		movs	r3, #15
 293 0060 8DF80530 		strb	r3, [sp, #5]
 209:Lib/bsp/src/stm32f4_discovery.c ****     NVIC_InitStructure.NVIC_IRQChannelCmd = ENABLE;
ARM GAS  /tmp/ccj1KyIg.s 			page 10


 294              		.loc 1 209 5 is_stmt 1 view .LVU69
 209:Lib/bsp/src/stm32f4_discovery.c ****     NVIC_InitStructure.NVIC_IRQChannelCmd = ENABLE;
 295              		.loc 1 209 51 is_stmt 0 view .LVU70
 296 0064 8DF80630 		strb	r3, [sp, #6]
 210:Lib/bsp/src/stm32f4_discovery.c **** 
 297              		.loc 1 210 5 is_stmt 1 view .LVU71
 210:Lib/bsp/src/stm32f4_discovery.c **** 
 298              		.loc 1 210 43 is_stmt 0 view .LVU72
 299 0068 8DF80740 		strb	r4, [sp, #7]
 212:Lib/bsp/src/stm32f4_discovery.c ****   }
 300              		.loc 1 212 5 is_stmt 1 view .LVU73
 301 006c 01A8     		add	r0, sp, #4
 302 006e FFF7FEFF 		bl	NVIC_Init
 303              	.LVL14:
 304              		.loc 1 214 1 is_stmt 0 view .LVU74
 305 0072 DEE7     		b	.L14
 306              	.L19:
 307              		.align	2
 308              	.L18:
 309 0074 00000240 		.word	1073872896
 310              		.cfi_endproc
 311              	.LFE127:
 313              		.section	.text.STM_EVAL_PBGetState,"ax",%progbits
 314              		.align	1
 315              		.global	STM_EVAL_PBGetState
 316              		.syntax unified
 317              		.thumb
 318              		.thumb_func
 320              	STM_EVAL_PBGetState:
 321              	.LFB128:
 215:Lib/bsp/src/stm32f4_discovery.c **** 
 216:Lib/bsp/src/stm32f4_discovery.c **** /**
 217:Lib/bsp/src/stm32f4_discovery.c ****   * @brief  Returns the selected Button state.
 218:Lib/bsp/src/stm32f4_discovery.c ****   * @param  Button: Specifies the Button to be checked.
 219:Lib/bsp/src/stm32f4_discovery.c ****   *   This parameter should be: BUTTON_USER
 220:Lib/bsp/src/stm32f4_discovery.c ****   * @retval The Button GPIO pin value.
 221:Lib/bsp/src/stm32f4_discovery.c ****   */
 222:Lib/bsp/src/stm32f4_discovery.c **** uint32_t STM_EVAL_PBGetState()
 223:Lib/bsp/src/stm32f4_discovery.c **** {
 322              		.loc 1 223 1 is_stmt 1 view -0
 323              		.cfi_startproc
 324              		@ args = 0, pretend = 0, frame = 0
 325              		@ frame_needed = 0, uses_anonymous_args = 0
 326 0000 08B5     		push	{r3, lr}
 327              		.cfi_def_cfa_offset 8
 328              		.cfi_offset 3, -8
 329              		.cfi_offset 14, -4
 224:Lib/bsp/src/stm32f4_discovery.c ****   return GPIO_ReadInputDataBit(USER_BUTTON_GPIO_PORT, USER_BUTTON_PIN);
 330              		.loc 1 224 3 view .LVU76
 331              		.loc 1 224 10 is_stmt 0 view .LVU77
 332 0002 0121     		movs	r1, #1
 333 0004 0148     		ldr	r0, .L22
 334 0006 FFF7FEFF 		bl	GPIO_ReadInputDataBit
 335              	.LVL15:
 225:Lib/bsp/src/stm32f4_discovery.c **** }
 336              		.loc 1 225 1 view .LVU78
 337 000a 08BD     		pop	{r3, pc}
ARM GAS  /tmp/ccj1KyIg.s 			page 11


 338              	.L23:
 339              		.align	2
 340              	.L22:
 341 000c 00000240 		.word	1073872896
 342              		.cfi_endproc
 343              	.LFE128:
 345              		.section	.text.STM_EVAL_IsPressed,"ax",%progbits
 346              		.align	1
 347              		.global	STM_EVAL_IsPressed
 348              		.syntax unified
 349              		.thumb
 350              		.thumb_func
 352              	STM_EVAL_IsPressed:
 353              	.LFB129:
 226:Lib/bsp/src/stm32f4_discovery.c **** 
 227:Lib/bsp/src/stm32f4_discovery.c **** 
 228:Lib/bsp/src/stm32f4_discovery.c **** bool STM_EVAL_IsPressed() 
 229:Lib/bsp/src/stm32f4_discovery.c **** {
 354              		.loc 1 229 1 is_stmt 1 view -0
 355              		.cfi_startproc
 356              		@ args = 0, pretend = 0, frame = 0
 357              		@ frame_needed = 0, uses_anonymous_args = 0
 358 0000 08B5     		push	{r3, lr}
 359              		.cfi_def_cfa_offset 8
 360              		.cfi_offset 3, -8
 361              		.cfi_offset 14, -4
 230:Lib/bsp/src/stm32f4_discovery.c ****   return STM_EVAL_PBGetState() == USER_BUTTON_PRESSED;
 362              		.loc 1 230 3 view .LVU80
 363              		.loc 1 230 10 is_stmt 0 view .LVU81
 364 0002 FFF7FEFF 		bl	STM_EVAL_PBGetState
 365              	.LVL16:
 231:Lib/bsp/src/stm32f4_discovery.c **** }
 366              		.loc 1 231 1 view .LVU82
 367 0006 0128     		cmp	r0, #1
 368 0008 14BF     		ite	ne
 369 000a 0020     		movne	r0, #0
 370 000c 0120     		moveq	r0, #1
 371 000e 08BD     		pop	{r3, pc}
 372              		.cfi_endproc
 373              	.LFE129:
 375              		.section	.text.STM_EVAL_COMInit,"ax",%progbits
 376              		.align	1
 377              		.global	STM_EVAL_COMInit
 378              		.syntax unified
 379              		.thumb
 380              		.thumb_func
 382              	STM_EVAL_COMInit:
 383              	.LVL17:
 384              	.LFB130:
 232:Lib/bsp/src/stm32f4_discovery.c **** 
 233:Lib/bsp/src/stm32f4_discovery.c **** 
 234:Lib/bsp/src/stm32f4_discovery.c **** 
 235:Lib/bsp/src/stm32f4_discovery.c **** 
 236:Lib/bsp/src/stm32f4_discovery.c **** USART_TypeDef* COM_USART[COMn] = {EVAL_COM1, EVAL_COM2}; 
 237:Lib/bsp/src/stm32f4_discovery.c **** 
 238:Lib/bsp/src/stm32f4_discovery.c **** GPIO_TypeDef* COM_TX_PORT[COMn] = {EVAL_COM1_TX_GPIO_PORT, EVAL_COM2_TX_GPIO_PORT};
 239:Lib/bsp/src/stm32f4_discovery.c ****  
ARM GAS  /tmp/ccj1KyIg.s 			page 12


 240:Lib/bsp/src/stm32f4_discovery.c **** GPIO_TypeDef* COM_RX_PORT[COMn] = {EVAL_COM1_RX_GPIO_PORT, EVAL_COM2_RX_GPIO_PORT};
 241:Lib/bsp/src/stm32f4_discovery.c **** 
 242:Lib/bsp/src/stm32f4_discovery.c **** const uint32_t COM_USART_CLK[COMn] = {EVAL_COM1_CLK, EVAL_COM2_CLK};
 243:Lib/bsp/src/stm32f4_discovery.c **** 
 244:Lib/bsp/src/stm32f4_discovery.c **** const uint32_t COM_TX_PORT_CLK[COMn] = {EVAL_COM1_TX_GPIO_CLK, EVAL_COM2_TX_GPIO_CLK};
 245:Lib/bsp/src/stm32f4_discovery.c ****  
 246:Lib/bsp/src/stm32f4_discovery.c **** const uint32_t COM_RX_PORT_CLK[COMn] = {EVAL_COM1_RX_GPIO_CLK, EVAL_COM2_RX_GPIO_CLK};
 247:Lib/bsp/src/stm32f4_discovery.c **** 
 248:Lib/bsp/src/stm32f4_discovery.c **** const uint16_t COM_TX_PIN[COMn] = {EVAL_COM1_TX_PIN, EVAL_COM2_TX_PIN};
 249:Lib/bsp/src/stm32f4_discovery.c **** 
 250:Lib/bsp/src/stm32f4_discovery.c **** const uint16_t COM_RX_PIN[COMn] = {EVAL_COM1_RX_PIN, EVAL_COM2_RX_PIN};
 251:Lib/bsp/src/stm32f4_discovery.c ****  
 252:Lib/bsp/src/stm32f4_discovery.c **** const uint16_t COM_TX_PIN_SOURCE[COMn] = {EVAL_COM1_TX_SOURCE, EVAL_COM2_TX_SOURCE};
 253:Lib/bsp/src/stm32f4_discovery.c **** 
 254:Lib/bsp/src/stm32f4_discovery.c **** const uint16_t COM_RX_PIN_SOURCE[COMn] = {EVAL_COM1_RX_SOURCE, EVAL_COM2_RX_SOURCE};
 255:Lib/bsp/src/stm32f4_discovery.c ****  
 256:Lib/bsp/src/stm32f4_discovery.c **** const uint16_t COM_TX_AF[COMn] = {EVAL_COM1_TX_AF, EVAL_COM2_TX_AF};
 257:Lib/bsp/src/stm32f4_discovery.c ****  
 258:Lib/bsp/src/stm32f4_discovery.c **** const uint16_t COM_RX_AF[COMn] = {EVAL_COM1_RX_AF, EVAL_COM2_RX_AF};
 259:Lib/bsp/src/stm32f4_discovery.c **** 
 260:Lib/bsp/src/stm32f4_discovery.c **** 
 261:Lib/bsp/src/stm32f4_discovery.c **** 
 262:Lib/bsp/src/stm32f4_discovery.c **** 
 263:Lib/bsp/src/stm32f4_discovery.c **** /**
 264:Lib/bsp/src/stm32f4_discovery.c ****   * @}
 265:Lib/bsp/src/stm32f4_discovery.c ****   */ 
 266:Lib/bsp/src/stm32f4_discovery.c **** /**
 267:Lib/bsp/src/stm32f4_discovery.c ****   * @brief  Configures COM port.
 268:Lib/bsp/src/stm32f4_discovery.c ****   * @param  COM: Specifies the COM port to be configured.
 269:Lib/bsp/src/stm32f4_discovery.c ****   *   This parameter can be one of following parameters:    
 270:Lib/bsp/src/stm32f4_discovery.c ****   *     @arg COM1
 271:Lib/bsp/src/stm32f4_discovery.c ****   *     @arg COM2  
 272:Lib/bsp/src/stm32f4_discovery.c ****   * @param  USART_InitStruct: pointer to a USART_InitTypeDef structure that
 273:Lib/bsp/src/stm32f4_discovery.c ****   *   contains the configuration information for the specified USART peripheral.
 274:Lib/bsp/src/stm32f4_discovery.c ****   * @retval None
 275:Lib/bsp/src/stm32f4_discovery.c ****   */
 276:Lib/bsp/src/stm32f4_discovery.c **** void STM_EVAL_COMInit(COM_TypeDef COM, USART_InitTypeDef* USART_InitStruct)
 277:Lib/bsp/src/stm32f4_discovery.c **** {
 385              		.loc 1 277 1 is_stmt 1 view -0
 386              		.cfi_startproc
 387              		@ args = 0, pretend = 0, frame = 8
 388              		@ frame_needed = 0, uses_anonymous_args = 0
 389              		.loc 1 277 1 is_stmt 0 view .LVU84
 390 0000 2DE9F043 		push	{r4, r5, r6, r7, r8, r9, lr}
 391              		.cfi_def_cfa_offset 28
 392              		.cfi_offset 4, -28
 393              		.cfi_offset 5, -24
 394              		.cfi_offset 6, -20
 395              		.cfi_offset 7, -16
 396              		.cfi_offset 8, -12
 397              		.cfi_offset 9, -8
 398              		.cfi_offset 14, -4
 399 0004 83B0     		sub	sp, sp, #12
 400              		.cfi_def_cfa_offset 40
 401 0006 0446     		mov	r4, r0
 402 0008 0D46     		mov	r5, r1
 278:Lib/bsp/src/stm32f4_discovery.c ****   GPIO_InitTypeDef GPIO_InitStructure;
ARM GAS  /tmp/ccj1KyIg.s 			page 13


 403              		.loc 1 278 3 is_stmt 1 view .LVU85
 279:Lib/bsp/src/stm32f4_discovery.c **** 
 280:Lib/bsp/src/stm32f4_discovery.c ****   /* Enable GPIO clock */
 281:Lib/bsp/src/stm32f4_discovery.c ****   RCC_AHB1PeriphClockCmd(COM_TX_PORT_CLK[COM] | COM_RX_PORT_CLK[COM], ENABLE);
 404              		.loc 1 281 3 view .LVU86
 405              		.loc 1 281 41 is_stmt 0 view .LVU87
 406 000a 2A4B     		ldr	r3, .L28
 407 000c 53F82000 		ldr	r0, [r3, r0, lsl #2]
 408              	.LVL18:
 409              		.loc 1 281 64 view .LVU88
 410 0010 294B     		ldr	r3, .L28+4
 411 0012 53F82430 		ldr	r3, [r3, r4, lsl #2]
 412              		.loc 1 281 3 view .LVU89
 413 0016 0121     		movs	r1, #1
 414              	.LVL19:
 415              		.loc 1 281 3 view .LVU90
 416 0018 1843     		orrs	r0, r0, r3
 417 001a FFF7FEFF 		bl	RCC_AHB1PeriphClockCmd
 418              	.LVL20:
 282:Lib/bsp/src/stm32f4_discovery.c **** 
 283:Lib/bsp/src/stm32f4_discovery.c ****    /* Enable UART clock */
 284:Lib/bsp/src/stm32f4_discovery.c ****   RCC_APB2PeriphClockCmd(COM_USART_CLK[COM], ENABLE);
 419              		.loc 1 284 3 is_stmt 1 view .LVU91
 420 001e 0121     		movs	r1, #1
 421 0020 264B     		ldr	r3, .L28+8
 422 0022 53F82400 		ldr	r0, [r3, r4, lsl #2]
 423 0026 FFF7FEFF 		bl	RCC_APB2PeriphClockCmd
 424              	.LVL21:
 285:Lib/bsp/src/stm32f4_discovery.c ****   
 286:Lib/bsp/src/stm32f4_discovery.c ****     /* Enable UART clock */
 287:Lib/bsp/src/stm32f4_discovery.c ****   //RCC_APB1PeriphClockCmd(COM_USART_CLK[COM], ENABLE);	 
 288:Lib/bsp/src/stm32f4_discovery.c **** 
 289:Lib/bsp/src/stm32f4_discovery.c ****   /* Connect PXx to USARTx_Tx*/
 290:Lib/bsp/src/stm32f4_discovery.c ****   GPIO_PinAFConfig(COM_TX_PORT[COM], COM_TX_PIN_SOURCE[COM], COM_TX_AF[COM]);
 425              		.loc 1 290 3 view .LVU92
 426 002a DFF8B090 		ldr	r9, .L28+40
 427 002e 244B     		ldr	r3, .L28+12
 428 0030 13F81420 		ldrb	r2, [r3, r4, lsl #1]	@ zero_extendqisi2
 429 0034 234B     		ldr	r3, .L28+16
 430 0036 33F81410 		ldrh	r1, [r3, r4, lsl #1]
 431 003a 59F82400 		ldr	r0, [r9, r4, lsl #2]
 432 003e FFF7FEFF 		bl	GPIO_PinAFConfig
 433              	.LVL22:
 291:Lib/bsp/src/stm32f4_discovery.c **** 
 292:Lib/bsp/src/stm32f4_discovery.c ****   /* Connect PXx to USARTx_Rx*/
 293:Lib/bsp/src/stm32f4_discovery.c ****   GPIO_PinAFConfig(COM_RX_PORT[COM], COM_RX_PIN_SOURCE[COM], COM_RX_AF[COM]);
 434              		.loc 1 293 3 view .LVU93
 435 0042 DFF89C80 		ldr	r8, .L28+44
 436 0046 204B     		ldr	r3, .L28+20
 437 0048 13F81420 		ldrb	r2, [r3, r4, lsl #1]	@ zero_extendqisi2
 438 004c 1F4B     		ldr	r3, .L28+24
 439 004e 33F81410 		ldrh	r1, [r3, r4, lsl #1]
 440 0052 58F82400 		ldr	r0, [r8, r4, lsl #2]
 441 0056 FFF7FEFF 		bl	GPIO_PinAFConfig
 442              	.LVL23:
 294:Lib/bsp/src/stm32f4_discovery.c **** 
 295:Lib/bsp/src/stm32f4_discovery.c ****   /* Configure USART Tx as alternate function  */
ARM GAS  /tmp/ccj1KyIg.s 			page 14


 296:Lib/bsp/src/stm32f4_discovery.c ****   GPIO_InitStructure.GPIO_OType = GPIO_OType_PP;
 443              		.loc 1 296 3 view .LVU94
 444              		.loc 1 296 33 is_stmt 0 view .LVU95
 445 005a 0023     		movs	r3, #0
 446 005c 8DF80630 		strb	r3, [sp, #6]
 297:Lib/bsp/src/stm32f4_discovery.c ****   GPIO_InitStructure.GPIO_PuPd = GPIO_PuPd_UP;
 447              		.loc 1 297 3 is_stmt 1 view .LVU96
 448              		.loc 1 297 32 is_stmt 0 view .LVU97
 449 0060 0127     		movs	r7, #1
 450 0062 8DF80770 		strb	r7, [sp, #7]
 298:Lib/bsp/src/stm32f4_discovery.c ****   GPIO_InitStructure.GPIO_Mode = GPIO_Mode_AF;
 451              		.loc 1 298 3 is_stmt 1 view .LVU98
 452              		.loc 1 298 32 is_stmt 0 view .LVU99
 453 0066 0226     		movs	r6, #2
 454 0068 8DF80460 		strb	r6, [sp, #4]
 299:Lib/bsp/src/stm32f4_discovery.c **** 
 300:Lib/bsp/src/stm32f4_discovery.c ****   GPIO_InitStructure.GPIO_Pin = COM_TX_PIN[COM];
 455              		.loc 1 300 3 is_stmt 1 view .LVU100
 456              		.loc 1 300 43 is_stmt 0 view .LVU101
 457 006c 184B     		ldr	r3, .L28+28
 458 006e 33F81430 		ldrh	r3, [r3, r4, lsl #1]
 459              		.loc 1 300 31 view .LVU102
 460 0072 0093     		str	r3, [sp]
 301:Lib/bsp/src/stm32f4_discovery.c ****   GPIO_InitStructure.GPIO_Speed = GPIO_Speed_50MHz;
 461              		.loc 1 301 3 is_stmt 1 view .LVU103
 462              		.loc 1 301 33 is_stmt 0 view .LVU104
 463 0074 8DF80560 		strb	r6, [sp, #5]
 302:Lib/bsp/src/stm32f4_discovery.c ****   GPIO_Init(COM_TX_PORT[COM], &GPIO_InitStructure);
 464              		.loc 1 302 3 is_stmt 1 view .LVU105
 465 0078 6946     		mov	r1, sp
 466 007a 59F82400 		ldr	r0, [r9, r4, lsl #2]
 467 007e FFF7FEFF 		bl	GPIO_Init
 468              	.LVL24:
 303:Lib/bsp/src/stm32f4_discovery.c **** 
 304:Lib/bsp/src/stm32f4_discovery.c ****   /* Configure USART Rx as alternate function  */
 305:Lib/bsp/src/stm32f4_discovery.c ****   GPIO_InitStructure.GPIO_Mode = GPIO_Mode_AF;
 469              		.loc 1 305 3 view .LVU106
 470              		.loc 1 305 32 is_stmt 0 view .LVU107
 471 0082 8DF80460 		strb	r6, [sp, #4]
 306:Lib/bsp/src/stm32f4_discovery.c ****   GPIO_InitStructure.GPIO_Pin = COM_RX_PIN[COM];
 472              		.loc 1 306 3 is_stmt 1 view .LVU108
 473              		.loc 1 306 43 is_stmt 0 view .LVU109
 474 0086 134B     		ldr	r3, .L28+32
 475 0088 33F81430 		ldrh	r3, [r3, r4, lsl #1]
 476              		.loc 1 306 31 view .LVU110
 477 008c 0093     		str	r3, [sp]
 307:Lib/bsp/src/stm32f4_discovery.c ****   GPIO_Init(COM_RX_PORT[COM], &GPIO_InitStructure);
 478              		.loc 1 307 3 is_stmt 1 view .LVU111
 479 008e 6946     		mov	r1, sp
 480 0090 58F82400 		ldr	r0, [r8, r4, lsl #2]
 481 0094 FFF7FEFF 		bl	GPIO_Init
 482              	.LVL25:
 308:Lib/bsp/src/stm32f4_discovery.c **** 
 309:Lib/bsp/src/stm32f4_discovery.c ****   /* USART configuration */
 310:Lib/bsp/src/stm32f4_discovery.c ****   USART_Init(COM_USART[COM], USART_InitStruct);
 483              		.loc 1 310 3 view .LVU112
 484 0098 0F4E     		ldr	r6, .L28+36
ARM GAS  /tmp/ccj1KyIg.s 			page 15


 485 009a 2946     		mov	r1, r5
 486 009c 56F82400 		ldr	r0, [r6, r4, lsl #2]
 487 00a0 FFF7FEFF 		bl	USART_Init
 488              	.LVL26:
 311:Lib/bsp/src/stm32f4_discovery.c ****     
 312:Lib/bsp/src/stm32f4_discovery.c ****   /* Enable USART */
 313:Lib/bsp/src/stm32f4_discovery.c ****   USART_Cmd(COM_USART[COM], ENABLE);
 489              		.loc 1 313 3 view .LVU113
 490 00a4 3946     		mov	r1, r7
 491 00a6 56F82400 		ldr	r0, [r6, r4, lsl #2]
 492 00aa FFF7FEFF 		bl	USART_Cmd
 493              	.LVL27:
 314:Lib/bsp/src/stm32f4_discovery.c **** }
 494              		.loc 1 314 1 is_stmt 0 view .LVU114
 495 00ae 03B0     		add	sp, sp, #12
 496              		.cfi_def_cfa_offset 28
 497              		@ sp needed
 498 00b0 BDE8F083 		pop	{r4, r5, r6, r7, r8, r9, pc}
 499              	.LVL28:
 500              	.L29:
 501              		.loc 1 314 1 view .LVU115
 502              		.align	2
 503              	.L28:
 504 00b4 00000000 		.word	.LANCHOR3
 505 00b8 00000000 		.word	.LANCHOR4
 506 00bc 00000000 		.word	.LANCHOR5
 507 00c0 00000000 		.word	.LANCHOR6
 508 00c4 00000000 		.word	.LANCHOR7
 509 00c8 00000000 		.word	.LANCHOR9
 510 00cc 00000000 		.word	.LANCHOR10
 511 00d0 00000000 		.word	.LANCHOR12
 512 00d4 00000000 		.word	.LANCHOR13
 513 00d8 00000000 		.word	.LANCHOR14
 514 00dc 00000000 		.word	.LANCHOR8
 515 00e0 00000000 		.word	.LANCHOR11
 516              		.cfi_endproc
 517              	.LFE130:
 519              		.global	COM_RX_AF
 520              		.global	COM_TX_AF
 521              		.global	COM_RX_PIN_SOURCE
 522              		.global	COM_TX_PIN_SOURCE
 523              		.global	COM_RX_PIN
 524              		.global	COM_TX_PIN
 525              		.global	COM_RX_PORT_CLK
 526              		.global	COM_TX_PORT_CLK
 527              		.global	COM_USART_CLK
 528              		.global	COM_RX_PORT
 529              		.global	COM_TX_PORT
 530              		.global	COM_USART
 531              		.global	NVIC_InitStructure
 532              		.global	GPIO_CLK
 533              		.global	GPIO_PIN
 534              		.global	GPIO_PORT
 535              		.global	outPins
 536              		.section	.bss.NVIC_InitStructure,"aw",%nobits
 537              		.align	2
 540              	NVIC_InitStructure:
ARM GAS  /tmp/ccj1KyIg.s 			page 16


 541 0000 00000000 		.space	4
 542              		.section	.data.COM_RX_PORT,"aw"
 543              		.align	2
 544              		.set	.LANCHOR11,. + 0
 547              	COM_RX_PORT:
 548 0000 00080240 		.word	1073874944
 549 0004 00080240 		.word	1073874944
 550              		.section	.data.COM_TX_PORT,"aw"
 551              		.align	2
 552              		.set	.LANCHOR8,. + 0
 555              	COM_TX_PORT:
 556 0000 00080240 		.word	1073874944
 557 0004 00080240 		.word	1073874944
 558              		.section	.data.COM_USART,"aw"
 559              		.align	2
 560              		.set	.LANCHOR14,. + 0
 563              	COM_USART:
 564 0000 00140140 		.word	1073812480
 565 0004 00480040 		.word	1073760256
 566              		.section	.data.GPIO_PORT,"aw"
 567              		.align	2
 568              		.set	.LANCHOR2,. + 0
 571              	GPIO_PORT:
 572 0000 000C0240 		.word	1073875968
 573 0004 000C0240 		.word	1073875968
 574 0008 000C0240 		.word	1073875968
 575 000c 000C0240 		.word	1073875968
 576              		.section	.rodata.COM_RX_AF,"a"
 577              		.align	2
 578              		.set	.LANCHOR9,. + 0
 581              	COM_RX_AF:
 582 0000 0800     		.short	8
 583 0002 0700     		.short	7
 584              		.section	.rodata.COM_RX_PIN,"a"
 585              		.align	2
 586              		.set	.LANCHOR13,. + 0
 589              	COM_RX_PIN:
 590 0000 8000     		.short	128
 591 0002 0008     		.short	2048
 592              		.section	.rodata.COM_RX_PIN_SOURCE,"a"
 593              		.align	2
 594              		.set	.LANCHOR10,. + 0
 597              	COM_RX_PIN_SOURCE:
 598 0000 0700     		.short	7
 599 0002 0B00     		.short	11
 600              		.section	.rodata.COM_RX_PORT_CLK,"a"
 601              		.align	2
 602              		.set	.LANCHOR4,. + 0
 605              	COM_RX_PORT_CLK:
 606 0000 04000000 		.word	4
 607 0004 04000000 		.word	4
 608              		.section	.rodata.COM_TX_AF,"a"
 609              		.align	2
 610              		.set	.LANCHOR6,. + 0
 613              	COM_TX_AF:
 614 0000 0800     		.short	8
 615 0002 0700     		.short	7
ARM GAS  /tmp/ccj1KyIg.s 			page 17


 616              		.section	.rodata.COM_TX_PIN,"a"
 617              		.align	2
 618              		.set	.LANCHOR12,. + 0
 621              	COM_TX_PIN:
 622 0000 4000     		.short	64
 623 0002 0004     		.short	1024
 624              		.section	.rodata.COM_TX_PIN_SOURCE,"a"
 625              		.align	2
 626              		.set	.LANCHOR7,. + 0
 629              	COM_TX_PIN_SOURCE:
 630 0000 0600     		.short	6
 631 0002 0A00     		.short	10
 632              		.section	.rodata.COM_TX_PORT_CLK,"a"
 633              		.align	2
 634              		.set	.LANCHOR3,. + 0
 637              	COM_TX_PORT_CLK:
 638 0000 04000000 		.word	4
 639 0004 04000000 		.word	4
 640              		.section	.rodata.COM_USART_CLK,"a"
 641              		.align	2
 642              		.set	.LANCHOR5,. + 0
 645              	COM_USART_CLK:
 646 0000 20000000 		.word	32
 647 0004 00000400 		.word	262144
 648              		.section	.rodata.GPIO_CLK,"a"
 649              		.align	2
 650              		.set	.LANCHOR0,. + 0
 653              	GPIO_CLK:
 654 0000 08000000 		.word	8
 655 0004 08000000 		.word	8
 656 0008 08000000 		.word	8
 657 000c 08000000 		.word	8
 658              		.section	.rodata.GPIO_PIN,"a"
 659              		.align	2
 660              		.set	.LANCHOR1,. + 0
 663              	GPIO_PIN:
 664 0000 0020     		.short	8192
 665 0002 0010     		.short	4096
 666 0004 0040     		.short	16384
 667 0006 0080     		.short	-32768
 668              		.section	.rodata.outPins,"a"
 669              		.align	2
 672              	outPins:
 673 0000 00       		.byte	0
 674 0001 01       		.byte	1
 675 0002 02       		.byte	2
 676 0003 03       		.byte	3
 677              		.text
 678              	.Letext0:
 679              		.file 2 "/usr/share/gcc-arm-none-eabi-10.3-2021.10/arm-none-eabi/include/machine/_default_types.h"
 680              		.file 3 "/usr/share/gcc-arm-none-eabi-10.3-2021.10/arm-none-eabi/include/sys/_stdint.h"
 681              		.file 4 "Drivers/CMSIS/Device/ST/STM32F4xx/Include/stm32f4xx.h"
 682              		.file 5 "Drivers/STM32F4xx_StdPeriph_Driver/inc/stm32f4xx_exti.h"
 683              		.file 6 "Drivers/STM32F4xx_StdPeriph_Driver/inc/stm32f4xx_gpio.h"
 684              		.file 7 "Drivers/STM32F4xx_StdPeriph_Driver/inc/stm32f4xx_usart.h"
 685              		.file 8 "Drivers/STM32F4xx_StdPeriph_Driver/inc/misc.h"
 686              		.file 9 "Lib/bsp/Inc/stm32f4_discovery.h"
ARM GAS  /tmp/ccj1KyIg.s 			page 18


 687              		.file 10 "Drivers/STM32F4xx_StdPeriph_Driver/inc/stm32f4xx_rcc.h"
 688              		.file 11 "Drivers/STM32F4xx_StdPeriph_Driver/inc/stm32f4xx_syscfg.h"
ARM GAS  /tmp/ccj1KyIg.s 			page 19

